---
triple:          'arm64-apple-darwin'
binary-path:     a.out
relocations:
  - { offsetInCU: 0x15B5, offset: 0x15B5, size: 0x8, addend: 0x0, symName: __ZN3tbb6detail2d120current_thread_indexEv, symObjAddr: 0xE798, symBinAddr: 0x100011000, symSize: 0x88 }
  - { offsetInCU: 0x15E3, offset: 0x15E3, size: 0x8, addend: 0x0, symName: __ZN3tbb6detail2d115max_concurrencyEv, symObjAddr: 0x9720, symBinAddr: 0x10000BF88, symSize: 0x48 }
  - { offsetInCU: 0x1693, offset: 0x1693, size: 0x8, addend: 0x0, symName: '__ZN3tbb6detail2d112parallel_forINS1_13blocked_rangeIiEEZ23dot_static_parallel_forRK6MatrixS7_E3$_0EEvRKT_RKT0_', symObjAddr: 0x1020, symBinAddr: 0x100003888, symSize: 0x84 }
  - { offsetInCU: 0x16DB, offset: 0x16DB, size: 0x8, addend: 0x0, symName: '__ZN3tbb6detail2d112parallel_forINS1_13blocked_rangeIiEEZ24dot_dynamic_parallel_forRK6MatrixS7_E3$_1EEvRKT_RKT0_RKNS1_18static_partitionerE', symObjAddr: 0x1330, symBinAddr: 0x100003B98, symSize: 0x74 }
  - { offsetInCU: 0x1976, offset: 0x1976, size: 0x8, addend: 0x0, symName: __ZN3tbb6detail2d116execute_and_waitERNS1_4taskERNS1_18task_group_contextERNS1_12wait_contextES5_, symObjAddr: 0x8E38, symBinAddr: 0x10000B6A0, symSize: 0x9C }
  - { offsetInCU: 0x19CD, offset: 0x19CD, size: 0x8, addend: 0x0, symName: __ZN3tbb6detail2d136get_initial_auto_partitioner_divisorEv, symObjAddr: 0x96BC, symBinAddr: 0x10000BF24, symSize: 0x64 }
  - { offsetInCU: 0x19F9, offset: 0x19F9, size: 0x8, addend: 0x0, symName: __ZN3tbb6detail2d116is_same_affinityERKNS1_14execution_dataE, symObjAddr: 0x97B0, symBinAddr: 0x10000C018, symSize: 0xB4 }
  - { offsetInCU: 0x1A25, offset: 0x1A25, size: 0x8, addend: 0x0, symName: __ZN3tbb6detail2d114execution_slotERKNS1_14execution_dataE, symObjAddr: 0x9878, symBinAddr: 0x10000C0E0, symSize: 0x60 }
  - { offsetInCU: 0x1A51, offset: 0x1A51, size: 0x8, addend: 0x0, symName: __ZN3tbb6detail2d113affinity_slotERKNS1_14execution_dataE, symObjAddr: 0x9C78, symBinAddr: 0x10000C4E0, symSize: 0x58 }
  - { offsetInCU: 0x1A7D, offset: 0x1A7D, size: 0x8, addend: 0x0, symName: __ZN3tbb6detail2d1L14is_stolen_taskERKNS1_14execution_dataE, symObjAddr: 0x9CE4, symBinAddr: 0x10000C54C, symSize: 0x84 }
  - { offsetInCU: 0x1AAB, offset: 0x1AAB, size: 0x8, addend: 0x0, symName: __ZN3tbb6detail2d113original_slotERKNS1_14execution_dataE, symObjAddr: 0x9E20, symBinAddr: 0x10000C688, symSize: 0x58 }
  - { offsetInCU: 0x1AD7, offset: 0x1AD7, size: 0x8, addend: 0x0, symName: __ZN3tbb6detail2d17contextERKNS1_14execution_dataE, symObjAddr: 0xB7A4, symBinAddr: 0x10000E00C, symSize: 0x54 }
  - { offsetInCU: 0x1B03, offset: 0x1B03, size: 0x8, addend: 0x0, symName: __ZN3tbb6detail2d15spawnERNS1_4taskERNS1_18task_group_contextE, symObjAddr: 0xB7F8, symBinAddr: 0x10000E060, symSize: 0x70 }
  - { offsetInCU: 0x1B39, offset: 0x1B39, size: 0x8, addend: 0x0, symName: __ZN3tbb6detail2d120call_itt_task_notifyENS1_11notify_typeEPv, symObjAddr: 0xB868, symBinAddr: 0x10000E0D0, symSize: 0x14 }
  - { offsetInCU: 0x1CBB, offset: 0x1CBB, size: 0x8, addend: 0x0, symName: __ZN3tbb6detail2d19fold_treeINS1_9tree_nodeEEEvPNS1_4nodeERKNS1_14execution_dataE, symObjAddr: 0xD124, symBinAddr: 0x10000F98C, symSize: 0x128 }
  - { offsetInCU: 0x1F2E, offset: 0x1F2E, size: 0x8, addend: 0x0, symName: __ZN3tbb6detail2d1L26get_initial_partition_headEv, symObjAddr: 0xE68C, symBinAddr: 0x100010EF4, symSize: 0x70 }
  - { offsetInCU: 0x1F5C, offset: 0x1F5C, size: 0x8, addend: 0x0, symName: __ZN3tbb6detail2d15spawnERNS1_4taskERNS1_18task_group_contextEt, symObjAddr: 0xFA50, symBinAddr: 0x1000122B8, symSize: 0x80 }
  - { offsetInCU: 0x2295, offset: 0x2295, size: 0x8, addend: 0x0, symName: __ZN3tbb6detail2d022get_range_split_objectINS0_2d113blocked_rangeIiEENS1_5splitEEEDTclsr27range_split_object_providerIT_EE3getfp_EERT0_, symObjAddr: 0xABC0, symBinAddr: 0x10000D428, symSize: 0x48 }
  - { offsetInCU: 0x2379, offset: 0x2379, size: 0x8, addend: 0x0, symName: '__ZN3tbb6detail2d06invokeIRKZ23dot_static_parallel_forRK6MatrixS5_E3$_0JRNS0_2d113blocked_rangeIiEEEEENSt3__113invoke_resultIT_JDpT0_EE4typeEOSF_DpOSG_', symObjAddr: 0xC26C, symBinAddr: 0x10000EAD4, symSize: 0x64 }
  - { offsetInCU: 0x23CA, offset: 0x23CA, size: 0x8, addend: 0x0, symName: __ZN3tbb6detail2d011punned_castIPNS0_2d113blocked_rangeIiEEA128_KhEET_PT0_, symObjAddr: 0xC7A4, symBinAddr: 0x10000F00C, symSize: 0x1C }
  - { offsetInCU: 0x2416, offset: 0x2416, size: 0x8, addend: 0x0, symName: __ZN3tbb6detail2d023suppress_unused_warningIJRyEEEvDpOT_, symObjAddr: 0xDA68, symBinAddr: 0x1000102D0, symSize: 0x10 }
  - { offsetInCU: 0x2445, offset: 0x2445, size: 0x8, addend: 0x0, symName: __ZN3tbb6detail2d022get_range_split_objectINS0_2d113blocked_rangeIiEENS1_18proportional_splitEEEDTclsr27range_split_object_providerIT_EE3getfp_EERT0_, symObjAddr: 0xF228, symBinAddr: 0x100011A90, symSize: 0x48 }
  - { offsetInCU: 0x2483, offset: 0x2483, size: 0x8, addend: 0x0, symName: '__ZN3tbb6detail2d06invokeIRKZ24dot_dynamic_parallel_forRK6MatrixS5_E3$_1JRNS0_2d113blocked_rangeIiEEEEENSt3__113invoke_resultIT_JDpT0_EE4typeEOSF_DpOSG_', symObjAddr: 0xFB38, symBinAddr: 0x1000123A0, symSize: 0x64 }
  - { offsetInCU: 0xA4EF, offset: 0xA4EF, size: 0x8, addend: 0x0, symName: __ZNSt3__16chronomiB8ue170006IxNS_5ratioILl1ELl1000000000EEExS3_EENS_11common_typeIJNS0_8durationIT_T0_EENS5_IT1_T2_EEEE4typeERKS8_RKSB_, symObjAddr: 0x675C, symBinAddr: 0x100008FC4, symSize: 0xD8 }
  - { offsetInCU: 0xA9B5, offset: 0xA9B5, size: 0x8, addend: 0x0, symName: __ZNSt3__16chronomiB8ue170006INS0_12steady_clockENS0_8durationIxNS_5ratioILl1ELl1000000000EEEEES6_EENS_11common_typeIJT0_T1_EE4typeERKNS0_10time_pointIT_S8_EERKNSC_ISD_S9_EE, symObjAddr: 0x1F80, symBinAddr: 0x1000047E8, symSize: 0xA0 }
  - { offsetInCU: 0xAB01, offset: 0xAB01, size: 0x8, addend: 0x0, symName: __ZNSt3__16chrono13duration_castB8ue170006INS0_8durationIdNS_5ratioILl1ELl1EEEEExNS3_ILl1ELl1000000000EEEEENS_9enable_ifIXsr13__is_durationIT_EE5valueES8_E4typeERKNS2_IT0_T1_EE, symObjAddr: 0x6A70, symBinAddr: 0x1000092D8, symSize: 0x70 }
  - { offsetInCU: 0xACA9, offset: 0xACA9, size: 0x8, addend: 0x0, symName: __ZNSt3__124__put_character_sequenceB8ue170006IcNS_11char_traitsIcEEEERNS_13basic_ostreamIT_T0_EES7_PKS4_m, symObjAddr: 0x6C7C, symBinAddr: 0x1000094E4, symSize: 0x294 }
  - { offsetInCU: 0xBB56, offset: 0xBB56, size: 0x8, addend: 0x0, symName: __ZNSt3__117__cxx_atomic_loadB8ue170006IiEET_PKNS_22__cxx_atomic_base_implIS1_EENS_12memory_orderE, symObjAddr: 0x9ED0, symBinAddr: 0x10000C738, symSize: 0xDC }
  - { offsetInCU: 0xBFE4, offset: 0xBFE4, size: 0x8, addend: 0x0, symName: __ZNSt3__117__cxx_atomic_loadB8ue170006IbEET_PKNS_22__cxx_atomic_base_implIS1_EENS_12memory_orderE, symObjAddr: 0xC884, symBinAddr: 0x10000F0EC, symSize: 0xE0 }
  - { offsetInCU: 0xC041, offset: 0xC041, size: 0x8, addend: 0x0, symName: __ZNSt3__117__cxx_atomic_loadB8ue170006IN3tbb6detail2d118task_group_context5stateEEET_PKNS_22__cxx_atomic_base_implIS6_EENS_12memory_orderE, symObjAddr: 0xCFD0, symBinAddr: 0x10000F838, symSize: 0xDC }
  - { offsetInCU: 0xEB1F, offset: 0xEB1F, size: 0x8, addend: 0x0, symName: __ZNSt3__1lsB8ue170006IcNS_11char_traitsIcEENS_9allocatorIcEEEERNS_13basic_ostreamIT_T0_EES9_RKNS_12basic_stringIS6_S7_T1_EE, symObjAddr: 0xCC, symBinAddr: 0x100002934, symSize: 0x8C }
  - { offsetInCU: 0xEB77, offset: 0xEB77, size: 0x8, addend: 0x0, symName: __ZNSt3__1lsB8ue170006INS_11char_traitsIcEEEERNS_13basic_ostreamIcT_EES6_PKc, symObjAddr: 0xD4C, symBinAddr: 0x1000035B4, symSize: 0x88 }
  - { offsetInCU: 0xEE6F, offset: 0xEE6F, size: 0x8, addend: 0x0, symName: __ZNSt3__14endlB8ue170006IcNS_11char_traitsIcEEEERNS_13basic_ostreamIT_T0_EES7_, symObjAddr: 0x215C, symBinAddr: 0x1000049C4, symSize: 0xA8 }
  - { offsetInCU: 0xEEAF, offset: 0xEEAF, size: 0x8, addend: 0x0, symName: __ZNSt3__118__constexpr_strlenB8ue170006EPKc, symObjAddr: 0x2870, symBinAddr: 0x1000050D8, symSize: 0x48 }
  - { offsetInCU: 0xEEDB, offset: 0xEEDB, size: 0x8, addend: 0x0, symName: __ZNSt3__112__to_addressB8ue170006IKcEEPT_S3_, symObjAddr: 0x2AA8, symBinAddr: 0x100005310, symSize: 0x14 }
  - { offsetInCU: 0xEF43, offset: 0xEF43, size: 0x8, addend: 0x0, symName: __ZNSt3__122__make_exception_guardB8ue170006INS_6vectorIdNS_9allocatorIdEEE16__destroy_vectorEEENS_28__exception_guard_exceptionsIT_EES7_, symObjAddr: 0x3154, symBinAddr: 0x1000059BC, symSize: 0x74 }
  - { offsetInCU: 0xEF78, offset: 0xEF78, size: 0x8, addend: 0x0, symName: __ZNSt3__119__allocate_at_leastB8ue170006INS_9allocatorIdEEEEDaRT_m, symObjAddr: 0x38A4, symBinAddr: 0x10000610C, symSize: 0x94 }
  - { offsetInCU: 0xEFBB, offset: 0xEFBB, size: 0x8, addend: 0x0, symName: __ZNSt3__13minB8ue170006ImEERKT_S3_S3_, symObjAddr: 0x3AA0, symBinAddr: 0x100006308, symSize: 0x6C }
  - { offsetInCU: 0xF1E8, offset: 0xF1E8, size: 0x8, addend: 0x0, symName: __ZNSt3__13minB8ue170006ImNS_6__lessIvvEEEERKT_S5_S5_T0_, symObjAddr: 0x3BD4, symBinAddr: 0x10000643C, symSize: 0x80 }
  - { offsetInCU: 0xF477, offset: 0xF477, size: 0x8, addend: 0x0, symName: __ZNSt3__120__throw_length_errorB8ue170006EPKc, symObjAddr: 0x3D84, symBinAddr: 0x1000065EC, symSize: 0xB0 }
  - { offsetInCU: 0xF4A1, offset: 0xF4A1, size: 0x8, addend: 0x0, symName: __ZNSt3__117allocate_at_leastB8ue170006INS_9allocatorIdEEEENS_17allocation_resultINS_16allocator_traitsIT_E7pointerEEERS5_m, symObjAddr: 0x3F34, symBinAddr: 0x10000679C, symSize: 0x94 }
  - { offsetInCU: 0xF4E4, offset: 0xF4E4, size: 0x8, addend: 0x0, symName: __ZNSt3__117__libcpp_allocateB8ue170006Emm, symObjAddr: 0x414C, symBinAddr: 0x1000069B4, symSize: 0xB4 }
  - { offsetInCU: 0xF53F, offset: 0xF53F, size: 0x8, addend: 0x0, symName: __ZNSt3__124__is_overaligned_for_newB8ue170006Em, symObjAddr: 0x4200, symBinAddr: 0x100006A68, symSize: 0x20 }
  - { offsetInCU: 0xF56D, offset: 0xF56D, size: 0x8, addend: 0x0, symName: __ZNSt3__121__libcpp_operator_newB8ue170006IJmSt11align_val_tEEEPvDpT_, symObjAddr: 0x4220, symBinAddr: 0x100006A88, symSize: 0x6C }
  - { offsetInCU: 0xF5BA, offset: 0xF5BA, size: 0x8, addend: 0x0, symName: __ZNSt3__121__libcpp_operator_newB8ue170006IJmEEEPvDpT_, symObjAddr: 0x428C, symBinAddr: 0x100006AF4, symSize: 0x5C }
  - { offsetInCU: 0xF5F3, offset: 0xF5F3, size: 0x8, addend: 0x0, symName: __ZNSt3__112__to_addressB8ue170006IdEEPT_S2_, symObjAddr: 0x4498, symBinAddr: 0x100006D00, symSize: 0x14 }
  - { offsetInCU: 0xF64F, offset: 0xF64F, size: 0x8, addend: 0x0, symName: __ZNSt3__112construct_atB8ue170006IdJRKdEPdEEPT_S5_DpOT0_, symObjAddr: 0x4760, symBinAddr: 0x100006FC8, symSize: 0x84 }
  - { offsetInCU: 0xF6C1, offset: 0xF6C1, size: 0x8, addend: 0x0, symName: __ZNSt3__110destroy_atB8ue170006IdLi0EEEvPT_, symObjAddr: 0x4C90, symBinAddr: 0x1000074F8, symSize: 0x40 }
  - { offsetInCU: 0xF6F8, offset: 0xF6F8, size: 0x8, addend: 0x0, symName: __ZNSt3__112__destroy_atB8ue170006IdLi0EEEvPT_, symObjAddr: 0x4CD0, symBinAddr: 0x100007538, symSize: 0x10 }
  - { offsetInCU: 0xF72F, offset: 0xF72F, size: 0x8, addend: 0x0, symName: __ZNSt3__119__libcpp_deallocateB8ue170006EPvmm, symObjAddr: 0x4D4C, symBinAddr: 0x1000075B4, symSize: 0xA4 }
  - { offsetInCU: 0xF794, offset: 0xF794, size: 0x8, addend: 0x0, symName: __ZNSt3__127__do_deallocate_handle_sizeB8ue170006IJSt11align_val_tEEEvPvmDpT_, symObjAddr: 0x4DF0, symBinAddr: 0x100007658, symSize: 0x5C }
  - { offsetInCU: 0xF7E7, offset: 0xF7E7, size: 0x8, addend: 0x0, symName: __ZNSt3__127__do_deallocate_handle_sizeB8ue170006IJEEEvPvmDpT_, symObjAddr: 0x4E4C, symBinAddr: 0x1000076B4, symSize: 0x4C }
  - { offsetInCU: 0xF826, offset: 0xF826, size: 0x8, addend: 0x0, symName: __ZNSt3__124__libcpp_operator_deleteB8ue170006IJPvSt11align_val_tEEEvDpT_, symObjAddr: 0x4E98, symBinAddr: 0x100007700, symSize: 0x50 }
  - { offsetInCU: 0xF86F, offset: 0xF86F, size: 0x8, addend: 0x0, symName: __ZNSt3__124__libcpp_operator_deleteB8ue170006IJPvEEEvDpT_, symObjAddr: 0x4EE8, symBinAddr: 0x100007750, symSize: 0x40 }
  - { offsetInCU: 0xF8A4, offset: 0xF8A4, size: 0x8, addend: 0x0, symName: __ZNSt3__112construct_atB8ue170006IdJEPdEEPT_S3_DpOT0_, symObjAddr: 0x53BC, symBinAddr: 0x100007C24, symSize: 0x5C }
  - { offsetInCU: 0xF903, offset: 0xF903, size: 0x8, addend: 0x0, symName: __ZNSt3__130__uninitialized_allocator_copyB8ue170006INS_9allocatorIdEEPdS3_S3_EET2_RT_T0_T1_S4_, symObjAddr: 0x5840, symBinAddr: 0x1000080A8, symSize: 0xEC }
  - { offsetInCU: 0xF9A0, offset: 0xF9A0, size: 0x8, addend: 0x0, symName: __ZNSt3__114__unwrap_rangeB8ue170006IPdS1_EEDaT_T0_, symObjAddr: 0x592C, symBinAddr: 0x100008194, symSize: 0x70 }
  - { offsetInCU: 0xF9EC, offset: 0xF9EC, size: 0x8, addend: 0x0, symName: __ZNSt3__135__uninitialized_allocator_copy_implB8ue170006INS_9allocatorIdEEdddLPv0EEEPT2_RT_PT0_S9_S5_, symObjAddr: 0x599C, symBinAddr: 0x100008204, symSize: 0x88 }
  - { offsetInCU: 0xFA6E, offset: 0xFA6E, size: 0x8, addend: 0x0, symName: __ZNSt3__113__unwrap_iterB8ue170006IPdNS_18__unwrap_iter_implIS1_Lb1EEELi0EEEDTclsrT0_8__unwrapclsr3stdE7declvalIT_EEEES5_, symObjAddr: 0x5A24, symBinAddr: 0x10000828C, symSize: 0x48 }
  - { offsetInCU: 0xFAB2, offset: 0xFAB2, size: 0x8, addend: 0x0, symName: __ZNSt3__113__rewrap_iterB8ue170006IPdS1_NS_18__unwrap_iter_implIS1_Lb1EEEEET_S4_T0_, symObjAddr: 0x5A6C, symBinAddr: 0x1000082D4, symSize: 0x60 }
  - { offsetInCU: 0xFC9F, offset: 0xFC9F, size: 0x8, addend: 0x0, symName: __ZNSt3__14copyB8ue170006IPdS1_EET0_T_S3_S2_, symObjAddr: 0x5CA8, symBinAddr: 0x100008510, symSize: 0x98 }
  - { offsetInCU: 0xFCF9, offset: 0xFCF9, size: 0x8, addend: 0x0, symName: __ZNSt3__16__copyB8ue170006INS_17_ClassicAlgPolicyEPdS2_S2_EENS_4pairIT0_T2_EES4_T1_S5_, symObjAddr: 0x5D40, symBinAddr: 0x1000085A8, symSize: 0xA4 }
  - { offsetInCU: 0xFD65, offset: 0xFD65, size: 0x8, addend: 0x0, symName: __ZNSt3__123__dispatch_copy_or_moveB8ue170006INS_17_ClassicAlgPolicyENS_11__copy_loopIS1_EENS_14__copy_trivialEPdS5_S5_EENS_4pairIT2_T4_EES7_T3_S8_, symObjAddr: 0x5DE4, symBinAddr: 0x10000864C, symSize: 0xA4 }
  - { offsetInCU: 0xFDE3, offset: 0xFDE3, size: 0x8, addend: 0x0, symName: __ZNSt3__121__unwrap_and_dispatchB8ue170006INS_10__overloadINS_11__copy_loopINS_17_ClassicAlgPolicyEEENS_14__copy_trivialEEEPdS7_S7_Li0EEENS_4pairIT0_T2_EES9_T1_SA_, symObjAddr: 0x5E88, symBinAddr: 0x1000086F0, symSize: 0x150 }
  - { offsetInCU: 0xFEB9, offset: 0xFEB9, size: 0x8, addend: 0x0, symName: __ZNSt3__19make_pairB8ue170006IPdS1_EENS_4pairINS_18__unwrap_ref_decayIT_E4typeENS3_IT0_E4typeEEEOS4_OS7_, symObjAddr: 0x6088, symBinAddr: 0x1000088F0, symSize: 0x78 }
  - { offsetInCU: 0xFF08, offset: 0xFF08, size: 0x8, addend: 0x0, symName: __ZNSt3__114__rewrap_rangeB8ue170006IPdS1_S1_EET0_S2_T1_, symObjAddr: 0x6100, symBinAddr: 0x100008968, symSize: 0x58 }
  - { offsetInCU: 0xFF5D, offset: 0xFF5D, size: 0x8, addend: 0x0, symName: __ZNSt3__119__copy_trivial_implB8ue170006IddEENS_4pairIPT_PT0_EES3_S3_S5_, symObjAddr: 0x6158, symBinAddr: 0x1000089C0, symSize: 0xDC }
  - { offsetInCU: 0xFFC5, offset: 0xFFC5, size: 0x8, addend: 0x0, symName: __ZNSt3__119__constexpr_memmoveB8ue170006IddLi0EEEPT_S2_PT0_NS_15__element_countE, symObjAddr: 0x6234, symBinAddr: 0x100008A9C, symSize: 0x98 }
  - { offsetInCU: 0x10033, offset: 0x10033, size: 0x8, addend: 0x0, symName: __ZNSt3__19make_pairB8ue170006IRPdS1_EENS_4pairINS_18__unwrap_ref_decayIT_E4typeENS4_IT0_E4typeEEEOS5_OS8_, symObjAddr: 0x62CC, symBinAddr: 0x100008B34, symSize: 0x78 }
  - { offsetInCU: 0x100D5, offset: 0x100D5, size: 0x8, addend: 0x0, symName: __ZNSt3__116__pad_and_outputB8ue170006IcNS_11char_traitsIcEEEENS_19ostreambuf_iteratorIT_T0_EES6_PKS4_S8_S8_RNS_8ios_baseES4_, symObjAddr: 0x6F68, symBinAddr: 0x1000097D0, symSize: 0x300 }
  - { offsetInCU: 0x101A8, offset: 0x101A8, size: 0x8, addend: 0x0, symName: __ZNSt3__112__to_addressB8ue170006IcEEPT_S2_, symObjAddr: 0x778C, symBinAddr: 0x100009FF4, symSize: 0x14 }
  - { offsetInCU: 0x101DD, offset: 0x101DD, size: 0x8, addend: 0x0, symName: __ZNSt3__19use_facetB8ue170006INS_5ctypeIcEEEERKT_RKNS_6localeE, symObjAddr: 0x7B60, symBinAddr: 0x10000A3C8, symSize: 0x64 }
  - { offsetInCU: 0x106AB, offset: 0x106AB, size: 0x8, addend: 0x0, symName: __ZNSt3__118__cxx_atomic_storeB8ue170006IbEEvPNS_22__cxx_atomic_base_implIT_EES2_NS_12memory_orderE, symObjAddr: 0xA018, symBinAddr: 0x10000C880, symSize: 0xD4 }
  - { offsetInCU: 0x106FD, offset: 0x106FD, size: 0x8, addend: 0x0, symName: '__ZNSt3__16invokeB8ue170006IRKZ23dot_static_parallel_forRK6MatrixS3_E3$_0JRN3tbb6detail2d113blocked_rangeIiEEEEENS_13invoke_resultIT_JDpT0_EE4typeEOSE_DpOSF_', symObjAddr: 0xC2D0, symBinAddr: 0x10000EB38, symSize: 0x64 }
  - { offsetInCU: 0x1074C, offset: 0x1074C, size: 0x8, addend: 0x0, symName: '__ZNSt3__18__invokeB8ue170006IRKZ23dot_static_parallel_forRK6MatrixS3_E3$_0JRN3tbb6detail2d113blocked_rangeIiEEEEEDTclclsr3stdE7declvalIT_EEspclsr3stdE7declvalIT0_EEEEOSD_DpOSE_', symObjAddr: 0xC334, symBinAddr: 0x10000EB9C, symSize: 0x80 }
  - { offsetInCU: 0x10799, offset: 0x10799, size: 0x8, addend: 0x0, symName: __ZNSt3__122__cxx_atomic_fetch_subB8ue170006IiEET_PNS_22__cxx_atomic_base_implIS1_EES1_NS_12memory_orderE, symObjAddr: 0xD4AC, symBinAddr: 0x10000FD14, symSize: 0x118 }
  - { offsetInCU: 0x107EE, offset: 0x107EE, size: 0x8, addend: 0x0, symName: __ZNSt3__122__cxx_atomic_fetch_addB8ue170006IyEET_PNS_22__cxx_atomic_base_implIS1_EES1_NS_12memory_orderE, symObjAddr: 0xD788, symBinAddr: 0x10000FFF0, symSize: 0x118 }
  - { offsetInCU: 0x10844, offset: 0x10844, size: 0x8, addend: 0x0, symName: '__ZNSt3__16invokeB8ue170006IRKZ24dot_dynamic_parallel_forRK6MatrixS3_E3$_1JRN3tbb6detail2d113blocked_rangeIiEEEEENS_13invoke_resultIT_JDpT0_EE4typeEOSE_DpOSF_', symObjAddr: 0xFB9C, symBinAddr: 0x100012404, symSize: 0x64 }
  - { offsetInCU: 0x10893, offset: 0x10893, size: 0x8, addend: 0x0, symName: '__ZNSt3__18__invokeB8ue170006IRKZ24dot_dynamic_parallel_forRK6MatrixS3_E3$_1JRN3tbb6detail2d113blocked_rangeIiEEEEEDTclclsr3stdE7declvalIT_EEspclsr3stdE7declvalIT0_EEEEOSD_DpOSE_', symObjAddr: 0xFC00, symBinAddr: 0x100012468, symSize: 0x80 }
  - { offsetInCU: 0x10904, offset: 0x10904, size: 0x8, addend: 0x0, symName: __ZNSt3__118generate_canonicalB8ue170006IdLm53ENS_23mersenne_twister_engineIjLm32ELm624ELm397ELm31ELj2567483615ELm11ELj4294967295ELm7ELj2636928640ELm15ELj4022730752ELm18ELj1812433253EEEEET_RT1_, symObjAddr: 0x103EC, symBinAddr: 0x100012C54, symSize: 0x148 }
  - { offsetInCU: 0x10E68, offset: 0x10E68, size: 0x8, addend: 0x0, symName: __ZSt28__throw_bad_array_new_lengthB8ue170006v, symObjAddr: 0x40F8, symBinAddr: 0x100006960, symSize: 0x54 }
  - { offsetInCU: 0x11911, offset: 0x11911, size: 0x8, addend: 0x0, symName: __ZNKSt3__16chrono15__duration_castINS0_8durationIxNS_5ratioILl1ELl1000000000EEEEENS2_IdNS3_ILl1ELl1EEEEES4_Lb1ELb0EEclB8ue170006ERKS5_, symObjAddr: 0x6AE0, symBinAddr: 0x100009348, symSize: 0xAC }
  - { offsetInCU: 0x141EC, offset: 0x141EC, size: 0x8, addend: 0x0, symName: __ZlsRNSt3__113basic_ostreamIcNS_11char_traitsIcEEEER6Matrix, symObjAddr: 0x0, symBinAddr: 0x100002868, symSize: 0xCC }
  - { offsetInCU: 0x14495, offset: 0x14495, size: 0x8, addend: 0x0, symName: __ZN6Matrix10get_stringEv, symObjAddr: 0x158, symBinAddr: 0x1000029C0, symSize: 0x230 }
  - { offsetInCU: 0x144E5, offset: 0x144E5, size: 0x8, addend: 0x0, symName: __Z10dot_serialRK6MatrixS1_, symObjAddr: 0x388, symBinAddr: 0x100002BF0, symSize: 0x38C }
  - { offsetInCU: 0x14586, offset: 0x14586, size: 0x8, addend: 0x0, symName: __ZNSt16invalid_argumentC1B8ue170006EPKc, symObjAddr: 0x714, symBinAddr: 0x100002F7C, symSize: 0x6C }
  - { offsetInCU: 0x145BE, offset: 0x145BE, size: 0x8, addend: 0x0, symName: __ZN6MatrixC1Eii, symObjAddr: 0x780, symBinAddr: 0x100002FE8, symSize: 0x7C }
  - { offsetInCU: 0x14604, offset: 0x14604, size: 0x8, addend: 0x0, symName: __ZNK6MatrixclEii, symObjAddr: 0x7FC, symBinAddr: 0x100003064, symSize: 0x2A8 }
  - { offsetInCU: 0x14646, offset: 0x14646, size: 0x8, addend: 0x0, symName: __ZN6MatrixclEii, symObjAddr: 0xAA4, symBinAddr: 0x10000330C, symSize: 0x2A8 }
  - { offsetInCU: 0x14688, offset: 0x14688, size: 0x8, addend: 0x0, symName: __ZN6MatrixD1Ev, symObjAddr: 0xDD4, symBinAddr: 0x10000363C, symSize: 0x48 }
  - { offsetInCU: 0x146B1, offset: 0x146B1, size: 0x8, addend: 0x0, symName: __Z23dot_static_parallel_forRK6MatrixS1_, symObjAddr: 0xE1C, symBinAddr: 0x100003684, symSize: 0x204 }
  - { offsetInCU: 0x1473A, offset: 0x1473A, size: 0x8, addend: 0x0, symName: __ZN3tbb6detail2d113blocked_rangeIiEC1Eiim, symObjAddr: 0x10A4, symBinAddr: 0x10000390C, symSize: 0x78 }
  - { offsetInCU: 0x1478D, offset: 0x1478D, size: 0x8, addend: 0x0, symName: __Z24dot_dynamic_parallel_forRK6MatrixS1_, symObjAddr: 0x111C, symBinAddr: 0x100003984, symSize: 0x214 }
  - { offsetInCU: 0x14816, offset: 0x14816, size: 0x8, addend: 0x0, symName: __ZN3tbb6detail2d118static_partitionerC1Ev, symObjAddr: 0x13A4, symBinAddr: 0x100003C0C, symSize: 0x48 }
  - { offsetInCU: 0x14840, offset: 0x14840, size: 0x8, addend: 0x0, symName: _main, symObjAddr: 0x13EC, symBinAddr: 0x100003C54, symSize: 0x764 }
  - { offsetInCU: 0x14993, offset: 0x14993, size: 0x8, addend: 0x0, symName: __ZNSt3__16vectorIdNS_9allocatorIdEEEC1Em, symObjAddr: 0x1B50, symBinAddr: 0x1000043B8, symSize: 0x6C }
  - { offsetInCU: 0x149EA, offset: 0x149EA, size: 0x8, addend: 0x0, symName: __ZNSt3__113random_deviceC1B8ue170006Ev, symObjAddr: 0x1BBC, symBinAddr: 0x100004424, symSize: 0xBC }
  - { offsetInCU: 0x14A14, offset: 0x14A14, size: 0x8, addend: 0x0, symName: __ZNSt3__123mersenne_twister_engineIjLm32ELm624ELm397ELm31ELj2567483615ELm11ELj4294967295ELm7ELj2636928640ELm15ELj4022730752ELm18ELj1812433253EEC1B8ue170006Ej, symObjAddr: 0x1C78, symBinAddr: 0x1000044E0, symSize: 0x6C }
  - { offsetInCU: 0x14A74, offset: 0x14A74, size: 0x8, addend: 0x0, symName: __ZNSt3__125uniform_real_distributionIdEC1B8ue170006Edd, symObjAddr: 0x1CE4, symBinAddr: 0x10000454C, symSize: 0x7C }
  - { offsetInCU: 0x14AC0, offset: 0x14AC0, size: 0x8, addend: 0x0, symName: __ZNSt3__125uniform_real_distributionIdEclB8ue170006INS_23mersenne_twister_engineIjLm32ELm624ELm397ELm31ELj2567483615ELm11ELj4294967295ELm7ELj2636928640ELm15ELj4022730752ELm18ELj1812433253EEEEEdRT_, symObjAddr: 0x1D60, symBinAddr: 0x1000045C8, symSize: 0x70 }
  - { offsetInCU: 0x14AFD, offset: 0x14AFD, size: 0x8, addend: 0x0, symName: __ZNSt3__16vectorIdNS_9allocatorIdEEEixB8ue170006Em, symObjAddr: 0x1DD0, symBinAddr: 0x100004638, symSize: 0x70 }
  - { offsetInCU: 0x14B34, offset: 0x14B34, size: 0x8, addend: 0x0, symName: __ZNSt3__16vectorIdNS_9allocatorIdEEEC1ERKS3_, symObjAddr: 0x1E40, symBinAddr: 0x1000046A8, symSize: 0x6C }
  - { offsetInCU: 0x14B6F, offset: 0x14B6F, size: 0x8, addend: 0x0, symName: __ZN6MatrixC1ENSt3__16vectorIdNS0_9allocatorIdEEEEii, symObjAddr: 0x1EAC, symBinAddr: 0x100004714, symSize: 0x8C }
  - { offsetInCU: 0x14BC4, offset: 0x14BC4, size: 0x8, addend: 0x0, symName: __ZNSt3__16vectorIdNS_9allocatorIdEEED1B8ue170006Ev, symObjAddr: 0x1F38, symBinAddr: 0x1000047A0, symSize: 0x48 }
  - { offsetInCU: 0x14BF4, offset: 0x14BF4, size: 0x8, addend: 0x0, symName: __ZNSt3__16chrono8durationIdNS_5ratioILl1ELl1EEEEC1B8ue170006IxNS2_ILl1ELl1000000000EEEEERKNS1_IT_T0_EEPNS_9enable_ifIXaasr13__no_overflowIS8_S3_EE5valueooL_ZNS_17integral_constantIbLb1EE5valueEEaaeqsr13__no_overflowIS8_S3_E4typeE3denLi1Entsr23treat_as_floating_pointIS7_EE5valueEvE4typeE, symObjAddr: 0x2020, symBinAddr: 0x100004888, symSize: 0x7C }
  - { offsetInCU: 0x14C4B, offset: 0x14C4B, size: 0x8, addend: 0x0, symName: __ZNKSt3__16chrono8durationIdNS_5ratioILl1ELl1EEEE5countB8ue170006Ev, symObjAddr: 0x209C, symBinAddr: 0x100004904, symSize: 0x54 }
  - { offsetInCU: 0x14C71, offset: 0x14C71, size: 0x8, addend: 0x0, symName: __ZNSt3__113basic_ostreamIcNS_11char_traitsIcEEElsB8ue170006EPFRS3_S4_E, symObjAddr: 0x20F0, symBinAddr: 0x100004958, symSize: 0x6C }
  - { offsetInCU: 0x14CA5, offset: 0x14CA5, size: 0x8, addend: 0x0, symName: __ZN6MatrixeqERKS_, symObjAddr: 0x2204, symBinAddr: 0x100004A6C, symSize: 0x1EC }
  - { offsetInCU: 0x14CFB, offset: 0x14CFB, size: 0x8, addend: 0x0, symName: __ZNSt3__112basic_stringIcNS_11char_traitsIcEENS_9allocatorIcEEEC1B8ue170006ILi0EEEPKc, symObjAddr: 0x23F0, symBinAddr: 0x100004C58, symSize: 0x6C }
  - { offsetInCU: 0x14D3A, offset: 0x14D3A, size: 0x8, addend: 0x0, symName: __ZNK6Matrix8get_sizeEv, symObjAddr: 0x245C, symBinAddr: 0x100004CC4, symSize: 0x50 }
  - { offsetInCU: 0x14D60, offset: 0x14D60, size: 0x8, addend: 0x0, symName: __ZNSt3__112basic_stringIcNS_11char_traitsIcEENS_9allocatorIcEEEpLB8ue170006ERKS5_, symObjAddr: 0x24AC, symBinAddr: 0x100004D14, symSize: 0x6C }
  - { offsetInCU: 0x14D95, offset: 0x14D95, size: 0x8, addend: 0x0, symName: __ZNSt3__112basic_stringIcNS_11char_traitsIcEENS_9allocatorIcEEEpLB8ue170006EPKc, symObjAddr: 0x2518, symBinAddr: 0x100004D80, symSize: 0x6C }
  - { offsetInCU: 0x14DCA, offset: 0x14DCA, size: 0x8, addend: 0x0, symName: __ZNSt3__112basic_stringIcNS_11char_traitsIcEENS_9allocatorIcEEEpLB8ue170006Ec, symObjAddr: 0x2584, symBinAddr: 0x100004DEC, symSize: 0x6C }
  - { offsetInCU: 0x14DFF, offset: 0x14DFF, size: 0x8, addend: 0x0, symName: __ZNSt3__112basic_stringIcNS_11char_traitsIcEENS_9allocatorIcEEEC2B8ue170006ILi0EEEPKc, symObjAddr: 0x25F0, symBinAddr: 0x100004E58, symSize: 0x94 }
  - { offsetInCU: 0x14E44, offset: 0x14E44, size: 0x8, addend: 0x0, symName: __ZNSt3__117__compressed_pairINS_12basic_stringIcNS_11char_traitsIcEENS_9allocatorIcEEE5__repES5_EC1B8ue170006INS_18__default_init_tagESA_EEOT_OT0_, symObjAddr: 0x2684, symBinAddr: 0x100004EEC, symSize: 0x7C }
  - { offsetInCU: 0x14E9C, offset: 0x14E9C, size: 0x8, addend: 0x0, symName: __ZNSt3__111char_traitsIcE6lengthB8ue170006EPKc, symObjAddr: 0x2700, symBinAddr: 0x100004F68, symSize: 0x50 }
  - { offsetInCU: 0x14EBF, offset: 0x14EBF, size: 0x8, addend: 0x0, symName: __ZNSt3__117__compressed_pairINS_12basic_stringIcNS_11char_traitsIcEENS_9allocatorIcEEE5__repES5_EC2B8ue170006INS_18__default_init_tagESA_EEOT_OT0_, symObjAddr: 0x2750, symBinAddr: 0x100004FB8, symSize: 0x68 }
  - { offsetInCU: 0x14F17, offset: 0x14F17, size: 0x8, addend: 0x0, symName: __ZNSt3__122__compressed_pair_elemINS_12basic_stringIcNS_11char_traitsIcEENS_9allocatorIcEEE5__repELi0ELb0EEC2B8ue170006ENS_18__default_init_tagE, symObjAddr: 0x27B8, symBinAddr: 0x100005020, symSize: 0x14 }
  - { offsetInCU: 0x14F4B, offset: 0x14F4B, size: 0x8, addend: 0x0, symName: __ZNSt3__122__compressed_pair_elemINS_9allocatorIcEELi1ELb1EEC2B8ue170006ENS_18__default_init_tagE, symObjAddr: 0x27CC, symBinAddr: 0x100005034, symSize: 0x48 }
  - { offsetInCU: 0x14F7F, offset: 0x14F7F, size: 0x8, addend: 0x0, symName: __ZNSt3__19allocatorIcEC2B8ue170006Ev, symObjAddr: 0x2814, symBinAddr: 0x10000507C, symSize: 0x48 }
  - { offsetInCU: 0x14FA9, offset: 0x14FA9, size: 0x8, addend: 0x0, symName: __ZNSt3__116__non_trivial_ifILb1ENS_9allocatorIcEEEC2B8ue170006Ev, symObjAddr: 0x285C, symBinAddr: 0x1000050C4, symSize: 0x14 }
  - { offsetInCU: 0x14FD3, offset: 0x14FD3, size: 0x8, addend: 0x0, symName: __ZNKSt3__16vectorIdNS_9allocatorIdEEE4sizeB8ue170006Ev, symObjAddr: 0x28E0, symBinAddr: 0x100005148, symSize: 0x78 }
  - { offsetInCU: 0x14FF9, offset: 0x14FF9, size: 0x8, addend: 0x0, symName: __ZNSt3__112basic_stringIcNS_11char_traitsIcEENS_9allocatorIcEEE6appendB8ue170006ERKS5_, symObjAddr: 0x2958, symBinAddr: 0x1000051C0, symSize: 0x8C }
  - { offsetInCU: 0x1502E, offset: 0x1502E, size: 0x8, addend: 0x0, symName: __ZNKSt3__112basic_stringIcNS_11char_traitsIcEENS_9allocatorIcEEE4dataB8ue170006Ev, symObjAddr: 0x29E4, symBinAddr: 0x10000524C, symSize: 0x4C }
  - { offsetInCU: 0x15054, offset: 0x15054, size: 0x8, addend: 0x0, symName: __ZNKSt3__112basic_stringIcNS_11char_traitsIcEENS_9allocatorIcEEE4sizeB8ue170006Ev, symObjAddr: 0x2A30, symBinAddr: 0x100005298, symSize: 0x78 }
  - { offsetInCU: 0x1507A, offset: 0x1507A, size: 0x8, addend: 0x0, symName: __ZNKSt3__112basic_stringIcNS_11char_traitsIcEENS_9allocatorIcEEE13__get_pointerB8ue170006Ev, symObjAddr: 0x2ABC, symBinAddr: 0x100005324, symSize: 0x78 }
  - { offsetInCU: 0x150A0, offset: 0x150A0, size: 0x8, addend: 0x0, symName: __ZNKSt3__112basic_stringIcNS_11char_traitsIcEENS_9allocatorIcEEE9__is_longB8ue170006Ev, symObjAddr: 0x2B34, symBinAddr: 0x10000539C, symSize: 0x6C }
  - { offsetInCU: 0x150C6, offset: 0x150C6, size: 0x8, addend: 0x0, symName: __ZNKSt3__112basic_stringIcNS_11char_traitsIcEENS_9allocatorIcEEE18__get_long_pointerB8ue170006Ev, symObjAddr: 0x2BA0, symBinAddr: 0x100005408, symSize: 0x58 }
  - { offsetInCU: 0x150EC, offset: 0x150EC, size: 0x8, addend: 0x0, symName: __ZNKSt3__112basic_stringIcNS_11char_traitsIcEENS_9allocatorIcEEE19__get_short_pointerB8ue170006Ev, symObjAddr: 0x2BF8, symBinAddr: 0x100005460, symSize: 0x4C }
  - { offsetInCU: 0x15112, offset: 0x15112, size: 0x8, addend: 0x0, symName: __ZNKSt3__117__compressed_pairINS_12basic_stringIcNS_11char_traitsIcEENS_9allocatorIcEEE5__repES5_E5firstB8ue170006Ev, symObjAddr: 0x2C44, symBinAddr: 0x1000054AC, symSize: 0x48 }
  - { offsetInCU: 0x15138, offset: 0x15138, size: 0x8, addend: 0x0, symName: __ZNKSt3__122__compressed_pair_elemINS_12basic_stringIcNS_11char_traitsIcEENS_9allocatorIcEEE5__repELi0ELb0EE5__getB8ue170006Ev, symObjAddr: 0x2C8C, symBinAddr: 0x1000054F4, symSize: 0x14 }
  - { offsetInCU: 0x1515E, offset: 0x1515E, size: 0x8, addend: 0x0, symName: __ZNSt3__114pointer_traitsIPKcE10pointer_toB8ue170006ERS1_, symObjAddr: 0x2CA0, symBinAddr: 0x100005508, symSize: 0x14 }
  - { offsetInCU: 0x15181, offset: 0x15181, size: 0x8, addend: 0x0, symName: __ZNKSt3__112basic_stringIcNS_11char_traitsIcEENS_9allocatorIcEEE15__get_long_sizeB8ue170006Ev, symObjAddr: 0x2CB4, symBinAddr: 0x10000551C, symSize: 0x5C }
  - { offsetInCU: 0x151A7, offset: 0x151A7, size: 0x8, addend: 0x0, symName: __ZNKSt3__112basic_stringIcNS_11char_traitsIcEENS_9allocatorIcEEE16__get_short_sizeB8ue170006Ev, symObjAddr: 0x2D10, symBinAddr: 0x100005578, symSize: 0x68 }
  - { offsetInCU: 0x151CD, offset: 0x151CD, size: 0x8, addend: 0x0, symName: __ZNSt16invalid_argumentC2B8ue170006EPKc, symObjAddr: 0x2D78, symBinAddr: 0x1000055E0, symSize: 0x94 }
  - { offsetInCU: 0x15205, offset: 0x15205, size: 0x8, addend: 0x0, symName: __ZN6MatrixC2Eii, symObjAddr: 0x2E0C, symBinAddr: 0x100005674, symSize: 0xE4 }
  - { offsetInCU: 0x1524B, offset: 0x1524B, size: 0x8, addend: 0x0, symName: __ZNSt3__16vectorIdNS_9allocatorIdEEEC1EmRKd, symObjAddr: 0x2EF0, symBinAddr: 0x100005758, symSize: 0x7C }
  - { offsetInCU: 0x15295, offset: 0x15295, size: 0x8, addend: 0x0, symName: __ZNSt3__16vectorIdNS_9allocatorIdEEEC2EmRKd, symObjAddr: 0x2F6C, symBinAddr: 0x1000057D4, symSize: 0x16C }
  - { offsetInCU: 0x152FB, offset: 0x152FB, size: 0x8, addend: 0x0, symName: __ZNSt3__117__compressed_pairIPdNS_9allocatorIdEEEC1B8ue170006IDnNS_18__default_init_tagEEEOT_OT0_, symObjAddr: 0x30D8, symBinAddr: 0x100005940, symSize: 0x7C }
  - { offsetInCU: 0x15353, offset: 0x15353, size: 0x8, addend: 0x0, symName: __ZNSt3__16vectorIdNS_9allocatorIdEEE16__destroy_vectorC1B8ue170006ERS3_, symObjAddr: 0x31C8, symBinAddr: 0x100005A30, symSize: 0x58 }
  - { offsetInCU: 0x1538C, offset: 0x1538C, size: 0x8, addend: 0x0, symName: __ZNSt3__16vectorIdNS_9allocatorIdEEE11__vallocateB8ue170006Em, symObjAddr: 0x3220, symBinAddr: 0x100005A88, symSize: 0x12C }
  - { offsetInCU: 0x153D0, offset: 0x153D0, size: 0x8, addend: 0x0, symName: __ZNSt3__16vectorIdNS_9allocatorIdEEE18__construct_at_endEmRKd, symObjAddr: 0x334C, symBinAddr: 0x100005BB4, symSize: 0x12C }
  - { offsetInCU: 0x15451, offset: 0x15451, size: 0x8, addend: 0x0, symName: __ZNSt3__128__exception_guard_exceptionsINS_6vectorIdNS_9allocatorIdEEE16__destroy_vectorEE10__completeB8ue170006Ev, symObjAddr: 0x3478, symBinAddr: 0x100005CE0, symSize: 0x54 }
  - { offsetInCU: 0x15477, offset: 0x15477, size: 0x8, addend: 0x0, symName: __ZNSt3__128__exception_guard_exceptionsINS_6vectorIdNS_9allocatorIdEEE16__destroy_vectorEED1B8ue170006Ev, symObjAddr: 0x34CC, symBinAddr: 0x100005D34, symSize: 0x48 }
  - { offsetInCU: 0x154A1, offset: 0x154A1, size: 0x8, addend: 0x0, symName: __ZNSt3__117__compressed_pairIPdNS_9allocatorIdEEEC2B8ue170006IDnNS_18__default_init_tagEEEOT_OT0_, symObjAddr: 0x3514, symBinAddr: 0x100005D7C, symSize: 0x6C }
  - { offsetInCU: 0x154F9, offset: 0x154F9, size: 0x8, addend: 0x0, symName: __ZNSt3__122__compressed_pair_elemIPdLi0ELb0EEC2B8ue170006IDnvEEOT_, symObjAddr: 0x3580, symBinAddr: 0x100005DE8, symSize: 0x5C }
  - { offsetInCU: 0x1553B, offset: 0x1553B, size: 0x8, addend: 0x0, symName: __ZNSt3__122__compressed_pair_elemINS_9allocatorIdEELi1ELb1EEC2B8ue170006ENS_18__default_init_tagE, symObjAddr: 0x35DC, symBinAddr: 0x100005E44, symSize: 0x48 }
  - { offsetInCU: 0x1556F, offset: 0x1556F, size: 0x8, addend: 0x0, symName: __ZNSt3__19allocatorIdEC2B8ue170006Ev, symObjAddr: 0x3624, symBinAddr: 0x100005E8C, symSize: 0x48 }
  - { offsetInCU: 0x15599, offset: 0x15599, size: 0x8, addend: 0x0, symName: __ZNSt3__116__non_trivial_ifILb1ENS_9allocatorIdEEEC2B8ue170006Ev, symObjAddr: 0x366C, symBinAddr: 0x100005ED4, symSize: 0x14 }
  - { offsetInCU: 0x155C3, offset: 0x155C3, size: 0x8, addend: 0x0, symName: __ZNSt3__128__exception_guard_exceptionsINS_6vectorIdNS_9allocatorIdEEE16__destroy_vectorEEC1B8ue170006ES5_, symObjAddr: 0x3680, symBinAddr: 0x100005EE8, symSize: 0x58 }
  - { offsetInCU: 0x155FB, offset: 0x155FB, size: 0x8, addend: 0x0, symName: __ZNSt3__128__exception_guard_exceptionsINS_6vectorIdNS_9allocatorIdEEE16__destroy_vectorEEC2B8ue170006ES5_, symObjAddr: 0x36D8, symBinAddr: 0x100005F40, symSize: 0x70 }
  - { offsetInCU: 0x15633, offset: 0x15633, size: 0x8, addend: 0x0, symName: __ZNSt3__16vectorIdNS_9allocatorIdEEE16__destroy_vectorC2B8ue170006ERS3_, symObjAddr: 0x3748, symBinAddr: 0x100005FB0, symSize: 0x68 }
  - { offsetInCU: 0x1566C, offset: 0x1566C, size: 0x8, addend: 0x0, symName: __ZNKSt3__16vectorIdNS_9allocatorIdEEE8max_sizeEv, symObjAddr: 0x37B0, symBinAddr: 0x100006018, symSize: 0xA8 }
  - { offsetInCU: 0x15694, offset: 0x15694, size: 0x8, addend: 0x0, symName: __ZNKSt3__16vectorIdNS_9allocatorIdEEE20__throw_length_errorB8ue170006Ev, symObjAddr: 0x3858, symBinAddr: 0x1000060C0, symSize: 0x4C }
  - { offsetInCU: 0x156BA, offset: 0x156BA, size: 0x8, addend: 0x0, symName: __ZNSt3__16vectorIdNS_9allocatorIdEEE7__allocB8ue170006Ev, symObjAddr: 0x3938, symBinAddr: 0x1000061A0, symSize: 0x4C }
  - { offsetInCU: 0x156E0, offset: 0x156E0, size: 0x8, addend: 0x0, symName: __ZNSt3__16vectorIdNS_9allocatorIdEEE9__end_capB8ue170006Ev, symObjAddr: 0x3984, symBinAddr: 0x1000061EC, symSize: 0x4C }
  - { offsetInCU: 0x15706, offset: 0x15706, size: 0x8, addend: 0x0, symName: __ZNKSt3__16vectorIdNS_9allocatorIdEEE14__annotate_newB8ue170006Em, symObjAddr: 0x39D0, symBinAddr: 0x100006238, symSize: 0xD0 }
  - { offsetInCU: 0x15746, offset: 0x15746, size: 0x8, addend: 0x0, symName: __ZNSt3__116allocator_traitsINS_9allocatorIdEEE8max_sizeB8ue170006IS2_vvEEmRKS2_, symObjAddr: 0x3B0C, symBinAddr: 0x100006374, symSize: 0x4C }
  - { offsetInCU: 0x15772, offset: 0x15772, size: 0x8, addend: 0x0, symName: __ZNKSt3__16vectorIdNS_9allocatorIdEEE7__allocB8ue170006Ev, symObjAddr: 0x3B58, symBinAddr: 0x1000063C0, symSize: 0x4C }
  - { offsetInCU: 0x15798, offset: 0x15798, size: 0x8, addend: 0x0, symName: __ZNSt3__114numeric_limitsIlE3maxB8ue170006Ev, symObjAddr: 0x3BA4, symBinAddr: 0x10000640C, symSize: 0x30 }
  - { offsetInCU: 0x157C2, offset: 0x157C2, size: 0x8, addend: 0x0, symName: __ZNKSt3__16__lessIvvEclB8ue170006ImmEEbRKT_RKT0_, symObjAddr: 0x3C54, symBinAddr: 0x1000064BC, symSize: 0x94 }
  - { offsetInCU: 0x15816, offset: 0x15816, size: 0x8, addend: 0x0, symName: __ZNSt3__114numeric_limitsImE3maxB8ue170006Ev, symObjAddr: 0x3CE8, symBinAddr: 0x100006550, symSize: 0x30 }
  - { offsetInCU: 0x1582A, offset: 0x1582A, size: 0x8, addend: 0x0, symName: __ZNSt3__123__libcpp_numeric_limitsImLb1EE3maxB8ue170006Ev, symObjAddr: 0x3D18, symBinAddr: 0x100006580, symSize: 0x8 }
  - { offsetInCU: 0x1583E, offset: 0x1583E, size: 0x8, addend: 0x0, symName: __ZNKSt3__117__compressed_pairIPdNS_9allocatorIdEEE6secondB8ue170006Ev, symObjAddr: 0x3D20, symBinAddr: 0x100006588, symSize: 0x48 }
  - { offsetInCU: 0x15864, offset: 0x15864, size: 0x8, addend: 0x0, symName: __ZNKSt3__122__compressed_pair_elemINS_9allocatorIdEELi1ELb1EE5__getB8ue170006Ev, symObjAddr: 0x3D68, symBinAddr: 0x1000065D0, symSize: 0x14 }
  - { offsetInCU: 0x1588A, offset: 0x1588A, size: 0x8, addend: 0x0, symName: __ZNSt3__123__libcpp_numeric_limitsIlLb1EE3maxB8ue170006Ev, symObjAddr: 0x3D7C, symBinAddr: 0x1000065E4, symSize: 0x8 }
  - { offsetInCU: 0x1589E, offset: 0x1589E, size: 0x8, addend: 0x0, symName: __ZNSt12length_errorC1B8ue170006EPKc, symObjAddr: 0x3E34, symBinAddr: 0x10000669C, symSize: 0x6C }
  - { offsetInCU: 0x158D6, offset: 0x158D6, size: 0x8, addend: 0x0, symName: __ZNSt12length_errorC2B8ue170006EPKc, symObjAddr: 0x3EA0, symBinAddr: 0x100006708, symSize: 0x94 }
  - { offsetInCU: 0x1590E, offset: 0x1590E, size: 0x8, addend: 0x0, symName: __ZNSt3__19allocatorIdE17allocate_at_leastB8ue170006Em, symObjAddr: 0x3FC8, symBinAddr: 0x100006830, symSize: 0x90 }
  - { offsetInCU: 0x15942, offset: 0x15942, size: 0x8, addend: 0x0, symName: __ZNSt3__19allocatorIdE8allocateB8ue170006Em, symObjAddr: 0x4058, symBinAddr: 0x1000068C0, symSize: 0xA0 }
  - { offsetInCU: 0x15976, offset: 0x15976, size: 0x8, addend: 0x0, symName: __ZNSt3__117__compressed_pairIPdNS_9allocatorIdEEE6secondB8ue170006Ev, symObjAddr: 0x42E8, symBinAddr: 0x100006B50, symSize: 0x48 }
  - { offsetInCU: 0x1599C, offset: 0x1599C, size: 0x8, addend: 0x0, symName: __ZNSt3__122__compressed_pair_elemINS_9allocatorIdEELi1ELb1EE5__getB8ue170006Ev, symObjAddr: 0x4330, symBinAddr: 0x100006B98, symSize: 0x14 }
  - { offsetInCU: 0x159C2, offset: 0x159C2, size: 0x8, addend: 0x0, symName: __ZNSt3__117__compressed_pairIPdNS_9allocatorIdEEE5firstB8ue170006Ev, symObjAddr: 0x4344, symBinAddr: 0x100006BAC, symSize: 0x48 }
  - { offsetInCU: 0x159E8, offset: 0x159E8, size: 0x8, addend: 0x0, symName: __ZNSt3__122__compressed_pair_elemIPdLi0ELb0EE5__getB8ue170006Ev, symObjAddr: 0x438C, symBinAddr: 0x100006BF4, symSize: 0x14 }
  - { offsetInCU: 0x15A0E, offset: 0x15A0E, size: 0x8, addend: 0x0, symName: __ZNKSt3__16vectorIdNS_9allocatorIdEEE31__annotate_contiguous_containerB8ue170006EPKvS5_S5_S5_, symObjAddr: 0x43A0, symBinAddr: 0x100006C08, symSize: 0x20 }
  - { offsetInCU: 0x15A64, offset: 0x15A64, size: 0x8, addend: 0x0, symName: __ZNKSt3__16vectorIdNS_9allocatorIdEEE4dataB8ue170006Ev, symObjAddr: 0x43C0, symBinAddr: 0x100006C28, symSize: 0x58 }
  - { offsetInCU: 0x15A8A, offset: 0x15A8A, size: 0x8, addend: 0x0, symName: __ZNKSt3__16vectorIdNS_9allocatorIdEEE8capacityB8ue170006Ev, symObjAddr: 0x4418, symBinAddr: 0x100006C80, symSize: 0x80 }
  - { offsetInCU: 0x15AB0, offset: 0x15AB0, size: 0x8, addend: 0x0, symName: __ZNKSt3__16vectorIdNS_9allocatorIdEEE9__end_capB8ue170006Ev, symObjAddr: 0x44AC, symBinAddr: 0x100006D14, symSize: 0x4C }
  - { offsetInCU: 0x15AD6, offset: 0x15AD6, size: 0x8, addend: 0x0, symName: __ZNKSt3__117__compressed_pairIPdNS_9allocatorIdEEE5firstB8ue170006Ev, symObjAddr: 0x44F8, symBinAddr: 0x100006D60, symSize: 0x48 }
  - { offsetInCU: 0x15AFC, offset: 0x15AFC, size: 0x8, addend: 0x0, symName: __ZNKSt3__122__compressed_pair_elemIPdLi0ELb0EE5__getB8ue170006Ev, symObjAddr: 0x4540, symBinAddr: 0x100006DA8, symSize: 0x14 }
  - { offsetInCU: 0x15B3E, offset: 0x15B3E, size: 0x8, addend: 0x0, symName: __ZNSt3__16vectorIdNS_9allocatorIdEEE21_ConstructTransactionC1B8ue170006ERS3_m, symObjAddr: 0x4554, symBinAddr: 0x100006DBC, symSize: 0x68 }
  - { offsetInCU: 0x15B86, offset: 0x15B86, size: 0x8, addend: 0x0, symName: __ZNSt3__116allocator_traitsINS_9allocatorIdEEE9constructB8ue170006IdJRKdEvvEEvRS2_PT_DpOT0_, symObjAddr: 0x45BC, symBinAddr: 0x100006E24, symSize: 0x70 }
  - { offsetInCU: 0x15BDB, offset: 0x15BDB, size: 0x8, addend: 0x0, symName: __ZNSt3__16vectorIdNS_9allocatorIdEEE21_ConstructTransactionD1B8ue170006Ev, symObjAddr: 0x462C, symBinAddr: 0x100006E94, symSize: 0x48 }
  - { offsetInCU: 0x15C05, offset: 0x15C05, size: 0x8, addend: 0x0, symName: __ZNSt3__16vectorIdNS_9allocatorIdEEE21_ConstructTransactionC2B8ue170006ERS3_m, symObjAddr: 0x4674, symBinAddr: 0x100006EDC, symSize: 0xEC }
  - { offsetInCU: 0x15C4D, offset: 0x15C4D, size: 0x8, addend: 0x0, symName: __ZNSt3__16vectorIdNS_9allocatorIdEEE21_ConstructTransactionD2B8ue170006Ev, symObjAddr: 0x47E4, symBinAddr: 0x10000704C, symSize: 0x7C }
  - { offsetInCU: 0x15C77, offset: 0x15C77, size: 0x8, addend: 0x0, symName: __ZNSt3__128__exception_guard_exceptionsINS_6vectorIdNS_9allocatorIdEEE16__destroy_vectorEED2B8ue170006Ev, symObjAddr: 0x4860, symBinAddr: 0x1000070C8, symSize: 0x80 }
  - { offsetInCU: 0x15CA1, offset: 0x15CA1, size: 0x8, addend: 0x0, symName: __ZNSt3__16vectorIdNS_9allocatorIdEEE16__destroy_vectorclB8ue170006Ev, symObjAddr: 0x48E0, symBinAddr: 0x100007148, symSize: 0xFC }
  - { offsetInCU: 0x15CC7, offset: 0x15CC7, size: 0x8, addend: 0x0, symName: __ZNSt3__16vectorIdNS_9allocatorIdEEE7__clearB8ue170006Ev, symObjAddr: 0x49DC, symBinAddr: 0x100007244, symSize: 0x50 }
  - { offsetInCU: 0x15CED, offset: 0x15CED, size: 0x8, addend: 0x0, symName: __ZNKSt3__16vectorIdNS_9allocatorIdEEE17__annotate_deleteB8ue170006Ev, symObjAddr: 0x4A2C, symBinAddr: 0x100007294, symSize: 0xD4 }
  - { offsetInCU: 0x15D13, offset: 0x15D13, size: 0x8, addend: 0x0, symName: __ZNSt3__116allocator_traitsINS_9allocatorIdEEE10deallocateB8ue170006ERS2_Pdm, symObjAddr: 0x4B00, symBinAddr: 0x100007368, symSize: 0x60 }
  - { offsetInCU: 0x15D55, offset: 0x15D55, size: 0x8, addend: 0x0, symName: __ZNSt3__16vectorIdNS_9allocatorIdEEE22__base_destruct_at_endB8ue170006EPd, symObjAddr: 0x4B60, symBinAddr: 0x1000073C8, symSize: 0xD0 }
  - { offsetInCU: 0x15D99, offset: 0x15D99, size: 0x8, addend: 0x0, symName: __ZNSt3__116allocator_traitsINS_9allocatorIdEEE7destroyB8ue170006IdvvEEvRS2_PT_, symObjAddr: 0x4C30, symBinAddr: 0x100007498, symSize: 0x60 }
  - { offsetInCU: 0x15DD4, offset: 0x15DD4, size: 0x8, addend: 0x0, symName: __ZNSt3__19allocatorIdE10deallocateB8ue170006EPdm, symObjAddr: 0x4CE0, symBinAddr: 0x100007548, symSize: 0x6C }
  - { offsetInCU: 0x15E16, offset: 0x15E16, size: 0x8, addend: 0x0, symName: __ZNSt12out_of_rangeC1B8ue170006EPKc, symObjAddr: 0x4F28, symBinAddr: 0x100007790, symSize: 0x6C }
  - { offsetInCU: 0x15E4E, offset: 0x15E4E, size: 0x8, addend: 0x0, symName: __ZNKSt3__16vectorIdNS_9allocatorIdEEEixB8ue170006Em, symObjAddr: 0x4F94, symBinAddr: 0x1000077FC, symSize: 0x70 }
  - { offsetInCU: 0x15E85, offset: 0x15E85, size: 0x8, addend: 0x0, symName: __ZNSt12out_of_rangeC2B8ue170006EPKc, symObjAddr: 0x5004, symBinAddr: 0x10000786C, symSize: 0x94 }
  - { offsetInCU: 0x15EBD, offset: 0x15EBD, size: 0x8, addend: 0x0, symName: __ZN6MatrixD2Ev, symObjAddr: 0x5098, symBinAddr: 0x100007900, symSize: 0x4C }
  - { offsetInCU: 0x15EE7, offset: 0x15EE7, size: 0x8, addend: 0x0, symName: __ZN3tbb6detail2d118static_partitionerC2Ev, symObjAddr: 0x50E4, symBinAddr: 0x10000794C, symSize: 0x14 }
  - { offsetInCU: 0x15F11, offset: 0x15F11, size: 0x8, addend: 0x0, symName: __ZNSt3__16vectorIdNS_9allocatorIdEEEC2Em, symObjAddr: 0x50F8, symBinAddr: 0x100007960, symSize: 0x15C }
  - { offsetInCU: 0x15F62, offset: 0x15F62, size: 0x8, addend: 0x0, symName: __ZNSt3__16vectorIdNS_9allocatorIdEEE18__construct_at_endEm, symObjAddr: 0x5254, symBinAddr: 0x100007ABC, symSize: 0x11C }
  - { offsetInCU: 0x15FD4, offset: 0x15FD4, size: 0x8, addend: 0x0, symName: __ZNSt3__116allocator_traitsINS_9allocatorIdEEE9constructB8ue170006IdJEvvEEvRS2_PT_DpOT0_, symObjAddr: 0x5370, symBinAddr: 0x100007BD8, symSize: 0x4C }
  - { offsetInCU: 0x16015, offset: 0x16015, size: 0x8, addend: 0x0, symName: __ZNSt3__16vectorIdNS_9allocatorIdEEEC2ERKS3_, symObjAddr: 0x5418, symBinAddr: 0x100007C80, symSize: 0x104 }
  - { offsetInCU: 0x16050, offset: 0x16050, size: 0x8, addend: 0x0, symName: __ZNSt3__116allocator_traitsINS_9allocatorIdEEE37select_on_container_copy_constructionB8ue170006IS2_vvEES2_RKS2_, symObjAddr: 0x551C, symBinAddr: 0x100007D84, symSize: 0x10 }
  - { offsetInCU: 0x16085, offset: 0x16085, size: 0x8, addend: 0x0, symName: __ZNSt3__117__compressed_pairIPdNS_9allocatorIdEEEC1B8ue170006IDnS3_EEOT_OT0_, symObjAddr: 0x552C, symBinAddr: 0x100007D94, symSize: 0x7C }
  - { offsetInCU: 0x160DD, offset: 0x160DD, size: 0x8, addend: 0x0, symName: __ZNSt3__16vectorIdNS_9allocatorIdEEE16__init_with_sizeB8ue170006IPdS5_EEvT_T0_m, symObjAddr: 0x55A8, symBinAddr: 0x100007E10, symSize: 0x120 }
  - { offsetInCU: 0x16151, offset: 0x16151, size: 0x8, addend: 0x0, symName: __ZNSt3__117__compressed_pairIPdNS_9allocatorIdEEEC2B8ue170006IDnS3_EEOT_OT0_, symObjAddr: 0x56C8, symBinAddr: 0x100007F30, symSize: 0x70 }
  - { offsetInCU: 0x161A9, offset: 0x161A9, size: 0x8, addend: 0x0, symName: __ZNSt3__122__compressed_pair_elemINS_9allocatorIdEELi1ELb1EEC2B8ue170006IS2_vEEOT_, symObjAddr: 0x5738, symBinAddr: 0x100007FA0, symSize: 0x18 }
  - { offsetInCU: 0x161EB, offset: 0x161EB, size: 0x8, addend: 0x0, symName: __ZNSt3__16vectorIdNS_9allocatorIdEEE18__construct_at_endIPdS5_EEvT_T0_m, symObjAddr: 0x5750, symBinAddr: 0x100007FB8, symSize: 0xF0 }
  - { offsetInCU: 0x16284, offset: 0x16284, size: 0x8, addend: 0x0, symName: __ZNSt3__119__unwrap_range_implIPdS1_E8__unwrapB8ue170006ES1_S1_, symObjAddr: 0x5ACC, symBinAddr: 0x100008334, symSize: 0xB8 }
  - { offsetInCU: 0x162BB, offset: 0x162BB, size: 0x8, addend: 0x0, symName: __ZNSt3__14pairIPdS1_EC1B8ue170006IS1_S1_LPv0EEEOT_OT0_, symObjAddr: 0x5B84, symBinAddr: 0x1000083EC, symSize: 0x68 }
  - { offsetInCU: 0x16319, offset: 0x16319, size: 0x8, addend: 0x0, symName: __ZNSt3__14pairIPdS1_EC2B8ue170006IS1_S1_LPv0EEEOT_OT0_, symObjAddr: 0x5BEC, symBinAddr: 0x100008454, symSize: 0xBC }
  - { offsetInCU: 0x16382, offset: 0x16382, size: 0x8, addend: 0x0, symName: __ZNKSt3__114__copy_trivialclB8ue170006IddLi0EEENS_4pairIPT_PT0_EES4_S4_S6_, symObjAddr: 0x5FD8, symBinAddr: 0x100008840, symSize: 0xB0 }
  - { offsetInCU: 0x163EA, offset: 0x163EA, size: 0x8, addend: 0x0, symName: __ZNSt3__14pairIPdS1_EC1B8ue170006IRS1_S1_LPv0EEEOT_OT0_, symObjAddr: 0x6344, symBinAddr: 0x100008BAC, symSize: 0x68 }
  - { offsetInCU: 0x16448, offset: 0x16448, size: 0x8, addend: 0x0, symName: __ZNSt3__14pairIPdS1_EC2B8ue170006IRS1_S1_LPv0EEEOT_OT0_, symObjAddr: 0x63AC, symBinAddr: 0x100008C14, symSize: 0xBC }
  - { offsetInCU: 0x164A6, offset: 0x164A6, size: 0x8, addend: 0x0, symName: __ZNSt3__119__unwrap_range_implIPdS1_E8__rewrapB8ue170006ES1_S1_, symObjAddr: 0x6468, symBinAddr: 0x100008CD0, symSize: 0x58 }
  - { offsetInCU: 0x164D7, offset: 0x164D7, size: 0x8, addend: 0x0, symName: __ZNSt3__118__unwrap_iter_implIPdLb1EE8__unwrapB8ue170006ES1_, symObjAddr: 0x64C0, symBinAddr: 0x100008D28, symSize: 0x48 }
  - { offsetInCU: 0x164FA, offset: 0x164FA, size: 0x8, addend: 0x0, symName: __ZNSt3__118__unwrap_iter_implIPdLb1EE8__rewrapB8ue170006ES1_S1_, symObjAddr: 0x6508, symBinAddr: 0x100008D70, symSize: 0x7C }
  - { offsetInCU: 0x1652B, offset: 0x1652B, size: 0x8, addend: 0x0, symName: __ZN6MatrixC2ENSt3__16vectorIdNS0_9allocatorIdEEEEii, symObjAddr: 0x6584, symBinAddr: 0x100008DEC, symSize: 0x17C }
  - { offsetInCU: 0x16580, offset: 0x16580, size: 0x8, addend: 0x0, symName: __ZNSt3__16vectorIdNS_9allocatorIdEEED2B8ue170006Ev, symObjAddr: 0x6700, symBinAddr: 0x100008F68, symSize: 0x5C }
  - { offsetInCU: 0x165CC, offset: 0x165CC, size: 0x8, addend: 0x0, symName: __ZNKSt3__16chrono10time_pointINS0_12steady_clockENS0_8durationIxNS_5ratioILl1ELl1000000000EEEEEE16time_since_epochB8ue170006Ev, symObjAddr: 0x6834, symBinAddr: 0x10000909C, symSize: 0x54 }
  - { offsetInCU: 0x165F2, offset: 0x165F2, size: 0x8, addend: 0x0, symName: __ZNKSt3__16chrono8durationIxNS_5ratioILl1ELl1000000000EEEE5countB8ue170006Ev, symObjAddr: 0x6888, symBinAddr: 0x1000090F0, symSize: 0x54 }
  - { offsetInCU: 0x16623, offset: 0x16623, size: 0x8, addend: 0x0, symName: __ZNSt3__16chrono8durationIxNS_5ratioILl1ELl1000000000EEEEC1B8ue170006IxEERKT_PNS_9enable_ifIXaasr14is_convertibleIS8_xEE5valueooL_ZNS_17integral_constantIbLb0EE5valueEEntsr23treat_as_floating_pointIS6_EE5valueEvE4typeE, symObjAddr: 0x68DC, symBinAddr: 0x100009144, symSize: 0x68 }
  - { offsetInCU: 0x16670, offset: 0x16670, size: 0x8, addend: 0x0, symName: __ZNSt3__16chrono8durationIxNS_5ratioILl1ELl1000000000EEEEC2B8ue170006IxEERKT_PNS_9enable_ifIXaasr14is_convertibleIS8_xEE5valueooL_ZNS_17integral_constantIbLb0EE5valueEEntsr23treat_as_floating_pointIS6_EE5valueEvE4typeE, symObjAddr: 0x6944, symBinAddr: 0x1000091AC, symSize: 0x88 }
  - { offsetInCU: 0x166BD, offset: 0x166BD, size: 0x8, addend: 0x0, symName: __ZNSt3__16chrono8durationIdNS_5ratioILl1ELl1EEEEC2B8ue170006IxNS2_ILl1ELl1000000000EEEEERKNS1_IT_T0_EEPNS_9enable_ifIXaasr13__no_overflowIS8_S3_EE5valueooL_ZNS_17integral_constantIbLb1EE5valueEEaaeqsr13__no_overflowIS8_S3_E4typeE3denLi1Entsr23treat_as_floating_pointIS7_EE5valueEvE4typeE, symObjAddr: 0x69CC, symBinAddr: 0x100009234, symSize: 0xA4 }
  - { offsetInCU: 0x16714, offset: 0x16714, size: 0x8, addend: 0x0, symName: __ZNSt3__16chrono8durationIdNS_5ratioILl1ELl1EEEEC1B8ue170006IdEERKT_PNS_9enable_ifIXaasr14is_convertibleIS8_dEE5valueooL_ZNS_17integral_constantIbLb1EE5valueEEntsr23treat_as_floating_pointIS6_EE5valueEvE4typeE, symObjAddr: 0x6B8C, symBinAddr: 0x1000093F4, symSize: 0x68 }
  - { offsetInCU: 0x16761, offset: 0x16761, size: 0x8, addend: 0x0, symName: __ZNSt3__16chrono8durationIdNS_5ratioILl1ELl1EEEEC2B8ue170006IdEERKT_PNS_9enable_ifIXaasr14is_convertibleIS8_dEE5valueooL_ZNS_17integral_constantIbLb1EE5valueEEntsr23treat_as_floating_pointIS6_EE5valueEvE4typeE, symObjAddr: 0x6BF4, symBinAddr: 0x10000945C, symSize: 0x88 }
  - { offsetInCU: 0x167D1, offset: 0x167D1, size: 0x8, addend: 0x0, symName: __ZNKSt3__113basic_ostreamIcNS_11char_traitsIcEEE6sentrycvbB8ue170006Ev, symObjAddr: 0x6F10, symBinAddr: 0x100009778, symSize: 0x58 }
  - { offsetInCU: 0x167F7, offset: 0x167F7, size: 0x8, addend: 0x0, symName: __ZNSt3__119ostreambuf_iteratorIcNS_11char_traitsIcEEEC1B8ue170006ERNS_13basic_ostreamIcS2_EE, symObjAddr: 0x7268, symBinAddr: 0x100009AD0, symSize: 0x58 }
  - { offsetInCU: 0x1682F, offset: 0x1682F, size: 0x8, addend: 0x0, symName: __ZNKSt3__18ios_base5flagsB8ue170006Ev, symObjAddr: 0x72C0, symBinAddr: 0x100009B28, symSize: 0x58 }
  - { offsetInCU: 0x16857, offset: 0x16857, size: 0x8, addend: 0x0, symName: __ZNKSt3__19basic_iosIcNS_11char_traitsIcEEE4fillB8ue170006Ev, symObjAddr: 0x7318, symBinAddr: 0x100009B80, symSize: 0xD8 }
  - { offsetInCU: 0x1687F, offset: 0x1687F, size: 0x8, addend: 0x0, symName: __ZNKSt3__119ostreambuf_iteratorIcNS_11char_traitsIcEEE6failedB8ue170006Ev, symObjAddr: 0x73F0, symBinAddr: 0x100009C58, symSize: 0x60 }
  - { offsetInCU: 0x168A5, offset: 0x168A5, size: 0x8, addend: 0x0, symName: __ZNSt3__19basic_iosIcNS_11char_traitsIcEEE8setstateB8ue170006Ej, symObjAddr: 0x7450, symBinAddr: 0x100009CB8, symSize: 0x64 }
  - { offsetInCU: 0x168DA, offset: 0x168DA, size: 0x8, addend: 0x0, symName: __ZNKSt3__18ios_base5widthB8ue170006Ev, symObjAddr: 0x74B4, symBinAddr: 0x100009D1C, symSize: 0x58 }
  - { offsetInCU: 0x16902, offset: 0x16902, size: 0x8, addend: 0x0, symName: __ZNSt3__115basic_streambufIcNS_11char_traitsIcEEE5sputnB8ue170006EPKcl, symObjAddr: 0x750C, symBinAddr: 0x100009D74, symSize: 0xA0 }
  - { offsetInCU: 0x16944, offset: 0x16944, size: 0x8, addend: 0x0, symName: __ZNSt3__112basic_stringIcNS_11char_traitsIcEENS_9allocatorIcEEEC1B8ue170006Emc, symObjAddr: 0x75AC, symBinAddr: 0x100009E14, symSize: 0x7C }
  - { offsetInCU: 0x1698C, offset: 0x1698C, size: 0x8, addend: 0x0, symName: __ZNSt3__112basic_stringIcNS_11char_traitsIcEENS_9allocatorIcEEE4dataB8ue170006Ev, symObjAddr: 0x7628, symBinAddr: 0x100009E90, symSize: 0x4C }
  - { offsetInCU: 0x169B2, offset: 0x169B2, size: 0x8, addend: 0x0, symName: __ZNSt3__18ios_base5widthB8ue170006El, symObjAddr: 0x7674, symBinAddr: 0x100009EDC, symSize: 0x88 }
  - { offsetInCU: 0x169F8, offset: 0x169F8, size: 0x8, addend: 0x0, symName: __ZNSt3__112basic_stringIcNS_11char_traitsIcEENS_9allocatorIcEEEC2B8ue170006Emc, symObjAddr: 0x76FC, symBinAddr: 0x100009F64, symSize: 0x90 }
  - { offsetInCU: 0x16A40, offset: 0x16A40, size: 0x8, addend: 0x0, symName: __ZNSt3__112basic_stringIcNS_11char_traitsIcEENS_9allocatorIcEEE13__get_pointerB8ue170006Ev, symObjAddr: 0x77A0, symBinAddr: 0x10000A008, symSize: 0x78 }
  - { offsetInCU: 0x16A66, offset: 0x16A66, size: 0x8, addend: 0x0, symName: __ZNSt3__112basic_stringIcNS_11char_traitsIcEENS_9allocatorIcEEE18__get_long_pointerB8ue170006Ev, symObjAddr: 0x7818, symBinAddr: 0x10000A080, symSize: 0x58 }
  - { offsetInCU: 0x16A8C, offset: 0x16A8C, size: 0x8, addend: 0x0, symName: __ZNSt3__112basic_stringIcNS_11char_traitsIcEENS_9allocatorIcEEE19__get_short_pointerB8ue170006Ev, symObjAddr: 0x7870, symBinAddr: 0x10000A0D8, symSize: 0x4C }
  - { offsetInCU: 0x16AB2, offset: 0x16AB2, size: 0x8, addend: 0x0, symName: __ZNSt3__117__compressed_pairINS_12basic_stringIcNS_11char_traitsIcEENS_9allocatorIcEEE5__repES5_E5firstB8ue170006Ev, symObjAddr: 0x78BC, symBinAddr: 0x10000A124, symSize: 0x48 }
  - { offsetInCU: 0x16AD8, offset: 0x16AD8, size: 0x8, addend: 0x0, symName: __ZNSt3__122__compressed_pair_elemINS_12basic_stringIcNS_11char_traitsIcEENS_9allocatorIcEEE5__repELi0ELb0EE5__getB8ue170006Ev, symObjAddr: 0x7904, symBinAddr: 0x10000A16C, symSize: 0x14 }
  - { offsetInCU: 0x16AFE, offset: 0x16AFE, size: 0x8, addend: 0x0, symName: __ZNSt3__114pointer_traitsIPcE10pointer_toB8ue170006ERc, symObjAddr: 0x7918, symBinAddr: 0x10000A180, symSize: 0x14 }
  - { offsetInCU: 0x16B21, offset: 0x16B21, size: 0x8, addend: 0x0, symName: __ZNSt3__119ostreambuf_iteratorIcNS_11char_traitsIcEEEC2B8ue170006ERNS_13basic_ostreamIcS2_EE, symObjAddr: 0x792C, symBinAddr: 0x10000A194, symSize: 0x90 }
  - { offsetInCU: 0x16B59, offset: 0x16B59, size: 0x8, addend: 0x0, symName: __ZNKSt3__19basic_iosIcNS_11char_traitsIcEEE5rdbufB8ue170006Ev, symObjAddr: 0x79BC, symBinAddr: 0x10000A224, symSize: 0x48 }
  - { offsetInCU: 0x16B81, offset: 0x16B81, size: 0x8, addend: 0x0, symName: __ZNKSt3__18ios_base5rdbufB8ue170006Ev, symObjAddr: 0x7A04, symBinAddr: 0x10000A26C, symSize: 0x58 }
  - { offsetInCU: 0x16BA7, offset: 0x16BA7, size: 0x8, addend: 0x0, symName: __ZNSt3__111char_traitsIcE11eq_int_typeB8ue170006Eii, symObjAddr: 0x7A5C, symBinAddr: 0x10000A2C4, symSize: 0x28 }
  - { offsetInCU: 0x16BDA, offset: 0x16BDA, size: 0x8, addend: 0x0, symName: __ZNSt3__111char_traitsIcE3eofB8ue170006Ev, symObjAddr: 0x7A84, symBinAddr: 0x10000A2EC, symSize: 0x8 }
  - { offsetInCU: 0x16BEE, offset: 0x16BEE, size: 0x8, addend: 0x0, symName: __ZNKSt3__19basic_iosIcNS_11char_traitsIcEEE5widenB8ue170006Ec, symObjAddr: 0x7A8C, symBinAddr: 0x10000A2F4, symSize: 0xD4 }
  - { offsetInCU: 0x16C5E, offset: 0x16C5E, size: 0x8, addend: 0x0, symName: __ZNKSt3__15ctypeIcE5widenB8ue170006Ec, symObjAddr: 0x7BC4, symBinAddr: 0x10000A42C, symSize: 0x8C }
  - { offsetInCU: 0x16C93, offset: 0x16C93, size: 0x8, addend: 0x0, symName: __ZNSt3__18ios_base8setstateB8ue170006Ej, symObjAddr: 0x7C50, symBinAddr: 0x10000A4B8, symSize: 0x7C }
  - { offsetInCU: 0x16CCA, offset: 0x16CCA, size: 0x8, addend: 0x0, symName: __ZN3tbb6detail2d113blocked_rangeIiEC2Eiim, symObjAddr: 0x7CCC, symBinAddr: 0x10000A534, symSize: 0xB8 }
  - { offsetInCU: 0x16D4D, offset: 0x16D4D, size: 0x8, addend: 0x0, symName: '__ZN3tbb6detail2d19start_forINS1_13blocked_rangeIiEEZ23dot_static_parallel_forRK6MatrixS7_E3$_0KNS1_16auto_partitionerEE3runERKS4_RKS8_RSA_', symObjAddr: 0x7D84, symBinAddr: 0x10000A5EC, symSize: 0x108 }
  - { offsetInCU: 0x16D9E, offset: 0x16D9E, size: 0x8, addend: 0x0, symName: __ZN3tbb6detail2d116auto_partitionerC1Ev, symObjAddr: 0x7E8C, symBinAddr: 0x10000A6F4, symSize: 0x48 }
  - { offsetInCU: 0x16DC8, offset: 0x16DC8, size: 0x8, addend: 0x0, symName: __ZN3tbb6detail2d118task_group_contextC1ENS0_2d021string_resource_indexE, symObjAddr: 0x7ED4, symBinAddr: 0x10000A73C, symSize: 0x8C }
  - { offsetInCU: 0x16E01, offset: 0x16E01, size: 0x8, addend: 0x0, symName: '__ZN3tbb6detail2d19start_forINS1_13blocked_rangeIiEEZ23dot_static_parallel_forRK6MatrixS7_E3$_0KNS1_16auto_partitionerEE3runERKS4_RKS8_RSA_RNS1_18task_group_contextE', symObjAddr: 0x7F60, symBinAddr: 0x10000A7C8, symSize: 0x14C }
  - { offsetInCU: 0x16E80, offset: 0x16E80, size: 0x8, addend: 0x0, symName: __ZN3tbb6detail2d118task_group_contextD1Ev, symObjAddr: 0x80AC, symBinAddr: 0x10000A914, symSize: 0x48 }
  - { offsetInCU: 0x16EAA, offset: 0x16EAA, size: 0x8, addend: 0x0, symName: __ZN3tbb6detail2d118task_group_context11make_traitsENS2_9kind_typeEm, symObjAddr: 0x80F4, symBinAddr: 0x10000A95C, symSize: 0xD4 }
  - { offsetInCU: 0x16EEC, offset: 0x16EEC, size: 0x8, addend: 0x0, symName: __ZN3tbb6detail2d118task_group_contextC1ENS2_14context_traitsENS0_2d021string_resource_indexE, symObjAddr: 0x81C8, symBinAddr: 0x10000AA30, symSize: 0x84 }
  - { offsetInCU: 0x16F34, offset: 0x16F34, size: 0x8, addend: 0x0, symName: __ZN3tbb6detail2d118task_group_contextC2ENS2_14context_traitsENS0_2d021string_resource_indexE, symObjAddr: 0x824C, symBinAddr: 0x10000AAB4, symSize: 0x100 }
  - { offsetInCU: 0x16F7C, offset: 0x16F7C, size: 0x8, addend: 0x0, symName: __ZNSt3__16atomicIjEC1B8ue170006Ev, symObjAddr: 0x834C, symBinAddr: 0x10000ABB4, symSize: 0x48 }
  - { offsetInCU: 0x16FA6, offset: 0x16FA6, size: 0x8, addend: 0x0, symName: __ZNSt3__16atomicIhEC1B8ue170006Ev, symObjAddr: 0x8394, symBinAddr: 0x10000ABFC, symSize: 0x48 }
  - { offsetInCU: 0x16FD0, offset: 0x16FD0, size: 0x8, addend: 0x0, symName: __ZNSt3__16atomicIN3tbb6detail2d118task_group_context5stateEEC1B8ue170006Ev, symObjAddr: 0x83DC, symBinAddr: 0x10000AC44, symSize: 0x48 }
  - { offsetInCU: 0x17000, offset: 0x17000, size: 0x8, addend: 0x0, symName: __ZN3tbb6detail2d119intrusive_list_nodeC1Ev, symObjAddr: 0x8424, symBinAddr: 0x10000AC8C, symSize: 0x48 }
  - { offsetInCU: 0x1702C, offset: 0x1702C, size: 0x8, addend: 0x0, symName: __ZNSt3__16atomicIPN3tbb6detail2r117tbb_exception_ptrEEC1B8ue170006Ev, symObjAddr: 0x846C, symBinAddr: 0x10000ACD4, symSize: 0x48 }
  - { offsetInCU: 0x17056, offset: 0x17056, size: 0x8, addend: 0x0, symName: __ZNSt3__16atomicIjEC2B8ue170006Ev, symObjAddr: 0x84B4, symBinAddr: 0x10000AD1C, symSize: 0x48 }
  - { offsetInCU: 0x17080, offset: 0x17080, size: 0x8, addend: 0x0, symName: __ZNSt3__113__atomic_baseIjLb1EEC2B8ue170006Ev, symObjAddr: 0x84FC, symBinAddr: 0x10000AD64, symSize: 0x48 }
  - { offsetInCU: 0x170AA, offset: 0x170AA, size: 0x8, addend: 0x0, symName: __ZNSt3__113__atomic_baseIjLb0EEC2B8ue170006Ev, symObjAddr: 0x8544, symBinAddr: 0x10000ADAC, symSize: 0x4C }
  - { offsetInCU: 0x170D4, offset: 0x170D4, size: 0x8, addend: 0x0, symName: __ZNSt3__117__cxx_atomic_implIjNS_22__cxx_atomic_base_implIjEEEC1B8ue170006Ej, symObjAddr: 0x8590, symBinAddr: 0x10000ADF8, symSize: 0x58 }
  - { offsetInCU: 0x1710D, offset: 0x1710D, size: 0x8, addend: 0x0, symName: __ZNSt3__117__cxx_atomic_implIjNS_22__cxx_atomic_base_implIjEEEC2B8ue170006Ej, symObjAddr: 0x85E8, symBinAddr: 0x10000AE50, symSize: 0x58 }
  - { offsetInCU: 0x17146, offset: 0x17146, size: 0x8, addend: 0x0, symName: __ZNSt3__122__cxx_atomic_base_implIjEC2Ej, symObjAddr: 0x8640, symBinAddr: 0x10000AEA8, symSize: 0x68 }
  - { offsetInCU: 0x1717F, offset: 0x1717F, size: 0x8, addend: 0x0, symName: __ZNSt3__16atomicIhEC2B8ue170006Ev, symObjAddr: 0x86A8, symBinAddr: 0x10000AF10, symSize: 0x48 }
  - { offsetInCU: 0x171A9, offset: 0x171A9, size: 0x8, addend: 0x0, symName: __ZNSt3__113__atomic_baseIhLb1EEC2B8ue170006Ev, symObjAddr: 0x86F0, symBinAddr: 0x10000AF58, symSize: 0x48 }
  - { offsetInCU: 0x171D3, offset: 0x171D3, size: 0x8, addend: 0x0, symName: __ZNSt3__113__atomic_baseIhLb0EEC2B8ue170006Ev, symObjAddr: 0x8738, symBinAddr: 0x10000AFA0, symSize: 0x4C }
  - { offsetInCU: 0x171FD, offset: 0x171FD, size: 0x8, addend: 0x0, symName: __ZNSt3__117__cxx_atomic_implIhNS_22__cxx_atomic_base_implIhEEEC1B8ue170006Eh, symObjAddr: 0x8784, symBinAddr: 0x10000AFEC, symSize: 0x58 }
  - { offsetInCU: 0x17236, offset: 0x17236, size: 0x8, addend: 0x0, symName: __ZNSt3__117__cxx_atomic_implIhNS_22__cxx_atomic_base_implIhEEEC2B8ue170006Eh, symObjAddr: 0x87DC, symBinAddr: 0x10000B044, symSize: 0x58 }
  - { offsetInCU: 0x1726F, offset: 0x1726F, size: 0x8, addend: 0x0, symName: __ZNSt3__122__cxx_atomic_base_implIhEC2Eh, symObjAddr: 0x8834, symBinAddr: 0x10000B09C, symSize: 0x68 }
  - { offsetInCU: 0x172A8, offset: 0x172A8, size: 0x8, addend: 0x0, symName: __ZNSt3__16atomicIN3tbb6detail2d118task_group_context5stateEEC2B8ue170006Ev, symObjAddr: 0x889C, symBinAddr: 0x10000B104, symSize: 0x48 }
  - { offsetInCU: 0x172D2, offset: 0x172D2, size: 0x8, addend: 0x0, symName: __ZNSt3__113__atomic_baseIN3tbb6detail2d118task_group_context5stateELb0EEC2B8ue170006Ev, symObjAddr: 0x88E4, symBinAddr: 0x10000B14C, symSize: 0x4C }
  - { offsetInCU: 0x172FC, offset: 0x172FC, size: 0x8, addend: 0x0, symName: __ZNSt3__117__cxx_atomic_implIN3tbb6detail2d118task_group_context5stateENS_22__cxx_atomic_base_implIS5_EEEC1B8ue170006ES5_, symObjAddr: 0x8930, symBinAddr: 0x10000B198, symSize: 0x58 }
  - { offsetInCU: 0x17335, offset: 0x17335, size: 0x8, addend: 0x0, symName: __ZNSt3__117__cxx_atomic_implIN3tbb6detail2d118task_group_context5stateENS_22__cxx_atomic_base_implIS5_EEEC2B8ue170006ES5_, symObjAddr: 0x8988, symBinAddr: 0x10000B1F0, symSize: 0x58 }
  - { offsetInCU: 0x1736E, offset: 0x1736E, size: 0x8, addend: 0x0, symName: __ZNSt3__122__cxx_atomic_base_implIN3tbb6detail2d118task_group_context5stateEEC2ES5_, symObjAddr: 0x89E0, symBinAddr: 0x10000B248, symSize: 0x68 }
  - { offsetInCU: 0x173A7, offset: 0x173A7, size: 0x8, addend: 0x0, symName: __ZN3tbb6detail2d119intrusive_list_nodeC2Ev, symObjAddr: 0x8A48, symBinAddr: 0x10000B2B0, symSize: 0x60 }
  - { offsetInCU: 0x173D3, offset: 0x173D3, size: 0x8, addend: 0x0, symName: __ZNSt3__16atomicIPN3tbb6detail2r117tbb_exception_ptrEEC2B8ue170006Ev, symObjAddr: 0x8AA8, symBinAddr: 0x10000B310, symSize: 0x48 }
  - { offsetInCU: 0x173FD, offset: 0x173FD, size: 0x8, addend: 0x0, symName: __ZNSt3__113__atomic_baseIPN3tbb6detail2r117tbb_exception_ptrELb0EEC2B8ue170006Ev, symObjAddr: 0x8AF0, symBinAddr: 0x10000B358, symSize: 0x4C }
  - { offsetInCU: 0x17427, offset: 0x17427, size: 0x8, addend: 0x0, symName: __ZNSt3__117__cxx_atomic_implIPN3tbb6detail2r117tbb_exception_ptrENS_22__cxx_atomic_base_implIS5_EEEC1B8ue170006ES5_, symObjAddr: 0x8B3C, symBinAddr: 0x10000B3A4, symSize: 0x58 }
  - { offsetInCU: 0x17460, offset: 0x17460, size: 0x8, addend: 0x0, symName: __ZNSt3__117__cxx_atomic_implIPN3tbb6detail2r117tbb_exception_ptrENS_22__cxx_atomic_base_implIS5_EEEC2B8ue170006ES5_, symObjAddr: 0x8B94, symBinAddr: 0x10000B3FC, symSize: 0x58 }
  - { offsetInCU: 0x17499, offset: 0x17499, size: 0x8, addend: 0x0, symName: __ZNSt3__122__cxx_atomic_base_implIPN3tbb6detail2r117tbb_exception_ptrEEC2ES5_, symObjAddr: 0x8BEC, symBinAddr: 0x10000B454, symSize: 0x68 }
  - { offsetInCU: 0x174D2, offset: 0x174D2, size: 0x8, addend: 0x0, symName: __ZNK3tbb6detail2d113blocked_rangeIiE5emptyEv, symObjAddr: 0x8C54, symBinAddr: 0x10000B4BC, symSize: 0x78 }
  - { offsetInCU: 0x174FE, offset: 0x174FE, size: 0x8, addend: 0x0, symName: __ZN3tbb6detail2d122small_object_allocatorC1Ev, symObjAddr: 0x8CCC, symBinAddr: 0x10000B534, symSize: 0x48 }
  - { offsetInCU: 0x17530, offset: 0x17530, size: 0x8, addend: 0x0, symName: '__ZN3tbb6detail2d122small_object_allocator10new_objectINS1_9start_forINS1_13blocked_rangeIiEEZ23dot_static_parallel_forRK6MatrixS9_E3$_0KNS1_16auto_partitionerEEEJRKS6_RKSA_RSC_RS2_EEEPT_DpOT0_', symObjAddr: 0x8D14, symBinAddr: 0x10000B57C, symSize: 0xC8 }
  - { offsetInCU: 0x175CD, offset: 0x175CD, size: 0x8, addend: 0x0, symName: __ZN3tbb6detail2d19wait_nodeC1Ev, symObjAddr: 0x8DDC, symBinAddr: 0x10000B644, symSize: 0x5C }
  - { offsetInCU: 0x175F7, offset: 0x175F7, size: 0x8, addend: 0x0, symName: __ZN3tbb6detail2d19wait_nodeD1Ev, symObjAddr: 0x8ED4, symBinAddr: 0x10000B73C, symSize: 0x48 }
  - { offsetInCU: 0x17623, offset: 0x17623, size: 0x8, addend: 0x0, symName: __ZN3tbb6detail2d122small_object_allocatorC2Ev, symObjAddr: 0x8F1C, symBinAddr: 0x10000B784, symSize: 0x50 }
  - { offsetInCU: 0x1764F, offset: 0x1764F, size: 0x8, addend: 0x0, symName: '__ZN3tbb6detail2d19start_forINS1_13blocked_rangeIiEEZ23dot_static_parallel_forRK6MatrixS7_E3$_0KNS1_16auto_partitionerEEC1ERKS4_RKS8_RSA_RNS1_22small_object_allocatorE', symObjAddr: 0x8F6C, symBinAddr: 0x10000B7D4, symSize: 0x9C }
  - { offsetInCU: 0x176B1, offset: 0x176B1, size: 0x8, addend: 0x0, symName: '__ZN3tbb6detail2d19start_forINS1_13blocked_rangeIiEEZ23dot_static_parallel_forRK6MatrixS7_E3$_0KNS1_16auto_partitionerEEC2ERKS4_RKS8_RSA_RNS1_22small_object_allocatorE', symObjAddr: 0x9008, symBinAddr: 0x10000B870, symSize: 0x134 }
  - { offsetInCU: 0x17713, offset: 0x17713, size: 0x8, addend: 0x0, symName: __ZN3tbb6detail2d14taskC2Ev, symObjAddr: 0x913C, symBinAddr: 0x10000B9A4, symSize: 0xC8 }
  - { offsetInCU: 0x17740, offset: 0x17740, size: 0x8, addend: 0x0, symName: __ZN3tbb6detail2d119auto_partition_typeC1ERKNS1_16auto_partitionerE, symObjAddr: 0x9204, symBinAddr: 0x10000BA6C, symSize: 0x6C }
  - { offsetInCU: 0x17776, offset: 0x17776, size: 0x8, addend: 0x0, symName: __ZN3tbb6detail2d14taskD2Ev, symObjAddr: 0x9270, symBinAddr: 0x10000BAD8, symSize: 0x14 }
  - { offsetInCU: 0x177A0, offset: 0x177A0, size: 0x8, addend: 0x0, symName: '__ZN3tbb6detail2d19start_forINS1_13blocked_rangeIiEEZ23dot_static_parallel_forRK6MatrixS7_E3$_0KNS1_16auto_partitionerEED1Ev', symObjAddr: 0x9284, symBinAddr: 0x10000BAEC, symSize: 0x48 }
  - { offsetInCU: 0x177CC, offset: 0x177CC, size: 0x8, addend: 0x0, symName: '__ZN3tbb6detail2d19start_forINS1_13blocked_rangeIiEEZ23dot_static_parallel_forRK6MatrixS7_E3$_0KNS1_16auto_partitionerEED0Ev', symObjAddr: 0x92CC, symBinAddr: 0x10000BB34, symSize: 0x50 }
  - { offsetInCU: 0x177F8, offset: 0x177F8, size: 0x8, addend: 0x0, symName: '__ZN3tbb6detail2d19start_forINS1_13blocked_rangeIiEEZ23dot_static_parallel_forRK6MatrixS7_E3$_0KNS1_16auto_partitionerEE7executeERNS1_14execution_dataE', symObjAddr: 0x931C, symBinAddr: 0x10000BB84, symSize: 0xF4 }
  - { offsetInCU: 0x1782D, offset: 0x1782D, size: 0x8, addend: 0x0, symName: '__ZN3tbb6detail2d19start_forINS1_13blocked_rangeIiEEZ23dot_static_parallel_forRK6MatrixS7_E3$_0KNS1_16auto_partitionerEE6cancelERNS1_14execution_dataE', symObjAddr: 0x9410, symBinAddr: 0x10000BC78, symSize: 0x68 }
  - { offsetInCU: 0x17868, offset: 0x17868, size: 0x8, addend: 0x0, symName: __ZN3tbb6detail2d111task_traitsC2Ev, symObjAddr: 0x9478, symBinAddr: 0x10000BCE0, symSize: 0x50 }
  - { offsetInCU: 0x17895, offset: 0x17895, size: 0x8, addend: 0x0, symName: __ZN3tbb6detail2d14taskD1Ev, symObjAddr: 0x94C8, symBinAddr: 0x10000BD30, symSize: 0x34 }
  - { offsetInCU: 0x178BF, offset: 0x178BF, size: 0x8, addend: 0x0, symName: __ZN3tbb6detail2d14taskD0Ev, symObjAddr: 0x94FC, symBinAddr: 0x10000BD64, symSize: 0x2C }
  - { offsetInCU: 0x178E9, offset: 0x178E9, size: 0x8, addend: 0x0, symName: __ZN3tbb6detail2d119auto_partition_typeC2ERKNS1_16auto_partitionerE, symObjAddr: 0x9528, symBinAddr: 0x10000BD90, symSize: 0x88 }
  - { offsetInCU: 0x1791F, offset: 0x1791F, size: 0x8, addend: 0x0, symName: __ZN3tbb6detail2d122dynamic_grainsize_modeINS1_13adaptive_modeINS1_19auto_partition_typeEEEEC2Ev, symObjAddr: 0x95B0, symBinAddr: 0x10000BE18, symSize: 0x84 }
  - { offsetInCU: 0x17949, offset: 0x17949, size: 0x8, addend: 0x0, symName: __ZN3tbb6detail2d113adaptive_modeINS1_19auto_partition_typeEEC2Ev, symObjAddr: 0x9634, symBinAddr: 0x10000BE9C, symSize: 0x88 }
  - { offsetInCU: 0x17973, offset: 0x17973, size: 0x8, addend: 0x0, symName: '__ZN3tbb6detail2d19start_forINS1_13blocked_rangeIiEEZ23dot_static_parallel_forRK6MatrixS7_E3$_0KNS1_16auto_partitionerEED2Ev', symObjAddr: 0x9768, symBinAddr: 0x10000BFD0, symSize: 0x48 }
  - { offsetInCU: 0x1799F, offset: 0x1799F, size: 0x8, addend: 0x0, symName: __ZN3tbb6detail2d119partition_type_baseINS1_19auto_partition_typeEE13note_affinityEt, symObjAddr: 0x9864, symBinAddr: 0x10000C0CC, symSize: 0x14 }
  - { offsetInCU: 0x179D1, offset: 0x179D1, size: 0x8, addend: 0x0, symName: '__ZN3tbb6detail2d122dynamic_grainsize_modeINS1_13adaptive_modeINS1_19auto_partition_typeEEEE18check_being_stolenINS1_9start_forINS1_13blocked_rangeIiEEZ23dot_static_parallel_forRK6MatrixSD_E3$_0KNS1_16auto_partitionerEEEEEbRT_RKNS1_14execution_dataE', symObjAddr: 0x98D8, symBinAddr: 0x10000C140, symSize: 0x1B0 }
  - { offsetInCU: 0x17A1E, offset: 0x17A1E, size: 0x8, addend: 0x0, symName: '__ZN3tbb6detail2d119partition_type_baseINS1_19auto_partition_typeEE7executeINS1_9start_forINS1_13blocked_rangeIiEEZ23dot_static_parallel_forRK6MatrixSB_E3$_0KNS1_16auto_partitionerEEES8_EEvRT_RT0_RNS1_14execution_dataE', symObjAddr: 0x9A88, symBinAddr: 0x10000C2F0, symSize: 0x134 }
  - { offsetInCU: 0x17A99, offset: 0x17A99, size: 0x8, addend: 0x0, symName: '__ZN3tbb6detail2d19start_forINS1_13blocked_rangeIiEEZ23dot_static_parallel_forRK6MatrixS7_E3$_0KNS1_16auto_partitionerEE8finalizeERKNS1_14execution_dataE', symObjAddr: 0x9BBC, symBinAddr: 0x10000C424, symSize: 0xBC }
  - { offsetInCU: 0x17AEA, offset: 0x17AEA, size: 0x8, addend: 0x0, symName: __ZN3tbb6detail2d119partition_type_baseINS1_19auto_partition_typeEE4selfEv, symObjAddr: 0x9CD0, symBinAddr: 0x10000C538, symSize: 0x14 }
  - { offsetInCU: 0x17B10, offset: 0x17B10, size: 0x8, addend: 0x0, symName: __ZNKSt3__113__atomic_baseIiLb0EEcviB8ue170006Ev, symObjAddr: 0x9D68, symBinAddr: 0x10000C5D0, symSize: 0x4C }
  - { offsetInCU: 0x17B36, offset: 0x17B36, size: 0x8, addend: 0x0, symName: '__ZN3tbb6detail2d19tree_node16mark_task_stolenINS1_9start_forINS1_13blocked_rangeIiEEZ23dot_static_parallel_forRK6MatrixS9_E3$_0KNS1_16auto_partitionerEEEEEvRT_', symObjAddr: 0x9DB4, symBinAddr: 0x10000C61C, symSize: 0x6C }
  - { offsetInCU: 0x17B70, offset: 0x17B70, size: 0x8, addend: 0x0, symName: __ZNKSt3__113__atomic_baseIiLb0EE4loadB8ue170006ENS_12memory_orderE, symObjAddr: 0x9E78, symBinAddr: 0x10000C6E0, symSize: 0x58 }
  - { offsetInCU: 0x17BA4, offset: 0x17BA4, size: 0x8, addend: 0x0, symName: __ZNSt3__113__atomic_baseIbLb0EE5storeB8ue170006EbNS_12memory_orderE, symObjAddr: 0x9FAC, symBinAddr: 0x10000C814, symSize: 0x6C }
  - { offsetInCU: 0x17BE6, offset: 0x17BE6, size: 0x8, addend: 0x0, symName: __ZNK3tbb6detail2d113blocked_rangeIiE12is_divisibleEv, symObjAddr: 0xA0EC, symBinAddr: 0x10000C954, symSize: 0x70 }
  - { offsetInCU: 0x17C0C, offset: 0x17C0C, size: 0x8, addend: 0x0, symName: __ZN3tbb6detail2d119auto_partition_type12is_divisibleEv, symObjAddr: 0xA15C, symBinAddr: 0x10000C9C4, symSize: 0x120 }
  - { offsetInCU: 0x17C3E, offset: 0x17C3E, size: 0x8, addend: 0x0, symName: __ZN3tbb6detail2d119partition_type_baseINS1_19auto_partition_typeEE9get_splitINS1_13blocked_rangeIiEEEENS0_2d05splitEv, symObjAddr: 0xA27C, symBinAddr: 0x10000CAE4, symSize: 0x10 }
  - { offsetInCU: 0x17C6D, offset: 0x17C6D, size: 0x8, addend: 0x0, symName: '__ZN3tbb6detail2d19start_forINS1_13blocked_rangeIiEEZ23dot_static_parallel_forRK6MatrixS7_E3$_0KNS1_16auto_partitionerEE10offer_workERNS0_2d05splitERNS1_14execution_dataE', symObjAddr: 0xA28C, symBinAddr: 0x10000CAF4, symSize: 0x78 }
  - { offsetInCU: 0x17CAF, offset: 0x17CAF, size: 0x8, addend: 0x0, symName: '__ZN3tbb6detail2d122dynamic_grainsize_modeINS1_13adaptive_modeINS1_19auto_partition_typeEEEE12work_balanceINS1_9start_forINS1_13blocked_rangeIiEEZ23dot_static_parallel_forRK6MatrixSD_E3$_0KNS1_16auto_partitionerEEESA_EEvRT_RT0_RNS1_14execution_dataE', symObjAddr: 0xA304, symBinAddr: 0x10000CB6C, symSize: 0x2F8 }
  - { offsetInCU: 0x17D2F, offset: 0x17D2F, size: 0x8, addend: 0x0, symName: __ZNK3tbb6detail2d113blocked_rangeIiE4sizeEv, symObjAddr: 0xA5FC, symBinAddr: 0x10000CE64, symSize: 0x78 }
  - { offsetInCU: 0x17D5B, offset: 0x17D5B, size: 0x8, addend: 0x0, symName: '__ZN3tbb6detail2d19start_forINS1_13blocked_rangeIiEEZ23dot_static_parallel_forRK6MatrixS7_E3$_0KNS1_16auto_partitionerEE15offer_work_implIJRSB_RNS0_2d05splitEEEEvRNS1_14execution_dataEDpOT_', symObjAddr: 0xA674, symBinAddr: 0x10000CEDC, symSize: 0x144 }
  - { offsetInCU: 0x17DD7, offset: 0x17DD7, size: 0x8, addend: 0x0, symName: '__ZN3tbb6detail2d122small_object_allocator10new_objectINS1_9start_forINS1_13blocked_rangeIiEEZ23dot_static_parallel_forRK6MatrixS9_E3$_0KNS1_16auto_partitionerEEEJRSD_RNS0_2d05splitERS2_EEEPT_RNS1_14execution_dataEDpOT0_', symObjAddr: 0xA7B8, symBinAddr: 0x10000D020, symSize: 0xC8 }
  - { offsetInCU: 0x17E7B, offset: 0x17E7B, size: 0x8, addend: 0x0, symName: __ZN3tbb6detail2d122small_object_allocator10new_objectINS1_9tree_nodeEJRPNS1_4nodeEiRS2_EEEPT_RNS1_14execution_dataEDpOT0_, symObjAddr: 0xA880, symBinAddr: 0x10000D0E8, symSize: 0xF4 }
  - { offsetInCU: 0x17F13, offset: 0x17F13, size: 0x8, addend: 0x0, symName: '__ZN3tbb6detail2d19start_forINS1_13blocked_rangeIiEEZ23dot_static_parallel_forRK6MatrixS7_E3$_0KNS1_16auto_partitionerEE10spawn_selfERNS1_14execution_dataE', symObjAddr: 0xA974, symBinAddr: 0x10000D1DC, symSize: 0x7C }
  - { offsetInCU: 0x17F47, offset: 0x17F47, size: 0x8, addend: 0x0, symName: '__ZN3tbb6detail2d19start_forINS1_13blocked_rangeIiEEZ23dot_static_parallel_forRK6MatrixS7_E3$_0KNS1_16auto_partitionerEEC1ERSB_RNS0_2d05splitERNS1_22small_object_allocatorE', symObjAddr: 0xA9F0, symBinAddr: 0x10000D258, symSize: 0x8C }
  - { offsetInCU: 0x17F9B, offset: 0x17F9B, size: 0x8, addend: 0x0, symName: '__ZN3tbb6detail2d19start_forINS1_13blocked_rangeIiEEZ23dot_static_parallel_forRK6MatrixS7_E3$_0KNS1_16auto_partitionerEEC2ERSB_RNS0_2d05splitERNS1_22small_object_allocatorE', symObjAddr: 0xAA7C, symBinAddr: 0x10000D2E4, symSize: 0x144 }
  - { offsetInCU: 0x17FEF, offset: 0x17FEF, size: 0x8, addend: 0x0, symName: __ZN3tbb6detail2d113blocked_rangeIiEC1ERS3_NS0_2d05splitE, symObjAddr: 0xAC08, symBinAddr: 0x10000D470, symSize: 0x6C }
  - { offsetInCU: 0x18031, offset: 0x18031, size: 0x8, addend: 0x0, symName: __ZN3tbb6detail2d119auto_partition_typeC1ERS2_NS0_2d05splitE, symObjAddr: 0xAC74, symBinAddr: 0x10000D4DC, symSize: 0x6C }
  - { offsetInCU: 0x18076, offset: 0x18076, size: 0x8, addend: 0x0, symName: __ZN3tbb6detail2d027range_split_object_providerINS0_2d113blocked_rangeIiEEvE3getINS1_5splitEEERT_SA_, symObjAddr: 0xACE0, symBinAddr: 0x10000D548, symSize: 0x14 }
  - { offsetInCU: 0x180A2, offset: 0x180A2, size: 0x8, addend: 0x0, symName: __ZN3tbb6detail2d113blocked_rangeIiEC2ERS3_NS0_2d05splitE, symObjAddr: 0xACF4, symBinAddr: 0x10000D55C, symSize: 0xE0 }
  - { offsetInCU: 0x180E4, offset: 0x180E4, size: 0x8, addend: 0x0, symName: __ZN3tbb6detail2d113blocked_rangeIiE8do_splitERS3_NS0_2d05splitE, symObjAddr: 0xADD4, symBinAddr: 0x10000D63C, symSize: 0xCC }
  - { offsetInCU: 0x1811F, offset: 0x1811F, size: 0x8, addend: 0x0, symName: __ZN3tbb6detail2d119auto_partition_typeC2ERS2_NS0_2d05splitE, symObjAddr: 0xAEA0, symBinAddr: 0x10000D708, symSize: 0x6C }
  - { offsetInCU: 0x18164, offset: 0x18164, size: 0x8, addend: 0x0, symName: __ZN3tbb6detail2d122dynamic_grainsize_modeINS1_13adaptive_modeINS1_19auto_partition_typeEEEEC2ERS6_NS0_2d05splitE, symObjAddr: 0xAF0C, symBinAddr: 0x10000D774, symSize: 0xBC }
  - { offsetInCU: 0x181A9, offset: 0x181A9, size: 0x8, addend: 0x0, symName: __ZN3tbb6detail2d113adaptive_modeINS1_19auto_partition_typeEEC2ERS4_NS0_2d05splitE, symObjAddr: 0xAFC8, symBinAddr: 0x10000D830, symSize: 0x74 }
  - { offsetInCU: 0x181EE, offset: 0x181EE, size: 0x8, addend: 0x0, symName: __ZN3tbb6detail2d113adaptive_modeINS1_19auto_partition_typeEE8do_splitERS4_NS0_2d05splitE, symObjAddr: 0xB03C, symBinAddr: 0x10000D8A4, symSize: 0x70 }
  - { offsetInCU: 0x1822F, offset: 0x1822F, size: 0x8, addend: 0x0, symName: __ZN3tbb6detail2d19tree_nodeC1EPNS1_4nodeEiRNS1_22small_object_allocatorE, symObjAddr: 0xB0AC, symBinAddr: 0x10000D914, symSize: 0x8C }
  - { offsetInCU: 0x18283, offset: 0x18283, size: 0x8, addend: 0x0, symName: __ZN3tbb6detail2d19tree_nodeC2EPNS1_4nodeEiRNS1_22small_object_allocatorE, symObjAddr: 0xB138, symBinAddr: 0x10000D9A0, symSize: 0x9C }
  - { offsetInCU: 0x182D7, offset: 0x182D7, size: 0x8, addend: 0x0, symName: __ZN3tbb6detail2d14nodeC2EPS2_i, symObjAddr: 0xB1D4, symBinAddr: 0x10000DA3C, symSize: 0x80 }
  - { offsetInCU: 0x1831D, offset: 0x1831D, size: 0x8, addend: 0x0, symName: __ZNSt3__16atomicIbEC1B8ue170006Eb, symObjAddr: 0xB254, symBinAddr: 0x10000DABC, symSize: 0x64 }
  - { offsetInCU: 0x18355, offset: 0x18355, size: 0x8, addend: 0x0, symName: __ZNSt3__16atomicIiEC1B8ue170006Ei, symObjAddr: 0xB2B8, symBinAddr: 0x10000DB20, symSize: 0x58 }
  - { offsetInCU: 0x1838D, offset: 0x1838D, size: 0x8, addend: 0x0, symName: __ZNSt3__16atomicIiEC2B8ue170006Ei, symObjAddr: 0xB310, symBinAddr: 0x10000DB78, symSize: 0x58 }
  - { offsetInCU: 0x183C5, offset: 0x183C5, size: 0x8, addend: 0x0, symName: __ZNSt3__113__atomic_baseIiLb1EEC2B8ue170006Ei, symObjAddr: 0xB368, symBinAddr: 0x10000DBD0, symSize: 0x58 }
  - { offsetInCU: 0x183FD, offset: 0x183FD, size: 0x8, addend: 0x0, symName: __ZNSt3__113__atomic_baseIiLb0EEC2B8ue170006Ei, symObjAddr: 0xB3C0, symBinAddr: 0x10000DC28, symSize: 0x58 }
  - { offsetInCU: 0x18435, offset: 0x18435, size: 0x8, addend: 0x0, symName: __ZNSt3__117__cxx_atomic_implIiNS_22__cxx_atomic_base_implIiEEEC1B8ue170006Ei, symObjAddr: 0xB418, symBinAddr: 0x10000DC80, symSize: 0x58 }
  - { offsetInCU: 0x1846E, offset: 0x1846E, size: 0x8, addend: 0x0, symName: __ZNSt3__117__cxx_atomic_implIiNS_22__cxx_atomic_base_implIiEEEC2B8ue170006Ei, symObjAddr: 0xB470, symBinAddr: 0x10000DCD8, symSize: 0x58 }
  - { offsetInCU: 0x184A7, offset: 0x184A7, size: 0x8, addend: 0x0, symName: __ZNSt3__122__cxx_atomic_base_implIiEC2Ei, symObjAddr: 0xB4C8, symBinAddr: 0x10000DD30, symSize: 0x68 }
  - { offsetInCU: 0x184E0, offset: 0x184E0, size: 0x8, addend: 0x0, symName: __ZNSt3__16atomicIbEC2B8ue170006Eb, symObjAddr: 0xB530, symBinAddr: 0x10000DD98, symSize: 0x64 }
  - { offsetInCU: 0x18518, offset: 0x18518, size: 0x8, addend: 0x0, symName: __ZNSt3__113__atomic_baseIbLb0EEC2B8ue170006Eb, symObjAddr: 0xB594, symBinAddr: 0x10000DDFC, symSize: 0x64 }
  - { offsetInCU: 0x18550, offset: 0x18550, size: 0x8, addend: 0x0, symName: __ZNSt3__117__cxx_atomic_implIbNS_22__cxx_atomic_base_implIbEEEC1B8ue170006Eb, symObjAddr: 0xB5F8, symBinAddr: 0x10000DE60, symSize: 0x64 }
  - { offsetInCU: 0x18589, offset: 0x18589, size: 0x8, addend: 0x0, symName: __ZNSt3__117__cxx_atomic_implIbNS_22__cxx_atomic_base_implIbEEEC2B8ue170006Eb, symObjAddr: 0xB65C, symBinAddr: 0x10000DEC4, symSize: 0x64 }
  - { offsetInCU: 0x185C2, offset: 0x185C2, size: 0x8, addend: 0x0, symName: __ZNSt3__122__cxx_atomic_base_implIbEC2Eb, symObjAddr: 0xB6C0, symBinAddr: 0x10000DF28, symSize: 0x74 }
  - { offsetInCU: 0x185FB, offset: 0x185FB, size: 0x8, addend: 0x0, symName: __ZN3tbb6detail2d119auto_partition_type10spawn_taskERNS1_4taskERNS1_18task_group_contextE, symObjAddr: 0xB734, symBinAddr: 0x10000DF9C, symSize: 0x70 }
  - { offsetInCU: 0x1863F, offset: 0x1863F, size: 0x8, addend: 0x0, symName: __ZN3tbb6detail2d122dynamic_grainsize_modeINS1_13adaptive_modeINS1_19auto_partition_typeEEEE9max_depthEv, symObjAddr: 0xB87C, symBinAddr: 0x10000E0E4, symSize: 0x58 }
  - { offsetInCU: 0x18665, offset: 0x18665, size: 0x8, addend: 0x0, symName: '__ZN3tbb6detail2d19start_forINS1_13blocked_rangeIiEEZ23dot_static_parallel_forRK6MatrixS7_E3$_0KNS1_16auto_partitionerEE8run_bodyERS4_', symObjAddr: 0xB8D4, symBinAddr: 0x10000E13C, symSize: 0x68 }
  - { offsetInCU: 0x186D1, offset: 0x186D1, size: 0x8, addend: 0x0, symName: __ZN3tbb6detail2d112range_vectorINS1_13blocked_rangeIiEELh8EEC1ERKS4_, symObjAddr: 0xB93C, symBinAddr: 0x10000E1A4, symSize: 0x6C }
  - { offsetInCU: 0x18709, offset: 0x18709, size: 0x8, addend: 0x0, symName: __ZN3tbb6detail2d112range_vectorINS1_13blocked_rangeIiEELh8EE13split_to_fillEh, symObjAddr: 0xB9A8, symBinAddr: 0x10000E210, symSize: 0x24C }
  - { offsetInCU: 0x18759, offset: 0x18759, size: 0x8, addend: 0x0, symName: '__ZN3tbb6detail2d119auto_partition_type16check_for_demandINS1_9start_forINS1_13blocked_rangeIiEEZ23dot_static_parallel_forRK6MatrixS9_E3$_0KNS1_16auto_partitionerEEEEEbRT_', symObjAddr: 0xBBF4, symBinAddr: 0x10000E45C, symSize: 0xB8 }
  - { offsetInCU: 0x18797, offset: 0x18797, size: 0x8, addend: 0x0, symName: __ZNK3tbb6detail2d112range_vectorINS1_13blocked_rangeIiEELh8EE4sizeEv, symObjAddr: 0xBCAC, symBinAddr: 0x10000E514, symSize: 0x58 }
  - { offsetInCU: 0x187BD, offset: 0x187BD, size: 0x8, addend: 0x0, symName: '__ZN3tbb6detail2d19start_forINS1_13blocked_rangeIiEEZ23dot_static_parallel_forRK6MatrixS7_E3$_0KNS1_16auto_partitionerEE10offer_workERKS4_hRNS1_14execution_dataE', symObjAddr: 0xBD04, symBinAddr: 0x10000E56C, symSize: 0x94 }
  - { offsetInCU: 0x1880D, offset: 0x1880D, size: 0x8, addend: 0x0, symName: __ZN3tbb6detail2d112range_vectorINS1_13blocked_rangeIiEELh8EE5frontEv, symObjAddr: 0xBD98, symBinAddr: 0x10000E600, symSize: 0x84 }
  - { offsetInCU: 0x18833, offset: 0x18833, size: 0x8, addend: 0x0, symName: __ZN3tbb6detail2d112range_vectorINS1_13blocked_rangeIiEELh8EE11front_depthEv, symObjAddr: 0xBE1C, symBinAddr: 0x10000E684, symSize: 0x78 }
  - { offsetInCU: 0x18859, offset: 0x18859, size: 0x8, addend: 0x0, symName: __ZN3tbb6detail2d112range_vectorINS1_13blocked_rangeIiEELh8EE9pop_frontEv, symObjAddr: 0xBE94, symBinAddr: 0x10000E6FC, symSize: 0xCC }
  - { offsetInCU: 0x1887F, offset: 0x1887F, size: 0x8, addend: 0x0, symName: __ZN3tbb6detail2d112range_vectorINS1_13blocked_rangeIiEELh8EE12is_divisibleEh, symObjAddr: 0xBF60, symBinAddr: 0x10000E7C8, symSize: 0xB8 }
  - { offsetInCU: 0x188B3, offset: 0x188B3, size: 0x8, addend: 0x0, symName: __ZN3tbb6detail2d112range_vectorINS1_13blocked_rangeIiEELh8EE4backEv, symObjAddr: 0xC018, symBinAddr: 0x10000E880, symSize: 0x80 }
  - { offsetInCU: 0x188D9, offset: 0x188D9, size: 0x8, addend: 0x0, symName: __ZN3tbb6detail2d112range_vectorINS1_13blocked_rangeIiEELh8EE8pop_backEv, symObjAddr: 0xC098, symBinAddr: 0x10000E900, symSize: 0xC4 }
  - { offsetInCU: 0x188FF, offset: 0x188FF, size: 0x8, addend: 0x0, symName: __ZNK3tbb6detail2d112range_vectorINS1_13blocked_rangeIiEELh8EE5emptyEv, symObjAddr: 0xC15C, symBinAddr: 0x10000E9C4, symSize: 0x64 }
  - { offsetInCU: 0x18925, offset: 0x18925, size: 0x8, addend: 0x0, symName: __ZN3tbb6detail2d118task_group_context28is_group_execution_cancelledEv, symObjAddr: 0xC1C0, symBinAddr: 0x10000EA28, symSize: 0x64 }
  - { offsetInCU: 0x1894B, offset: 0x1894B, size: 0x8, addend: 0x0, symName: __ZN3tbb6detail2d112range_vectorINS1_13blocked_rangeIiEELh8EED1Ev, symObjAddr: 0xC224, symBinAddr: 0x10000EA8C, symSize: 0x48 }
  - { offsetInCU: 0x1897B, offset: 0x1897B, size: 0x8, addend: 0x0, symName: '__ZZ23dot_static_parallel_forRK6MatrixS1_ENK3$_0clEN3tbb6detail2d113blocked_rangeIiEE', symObjAddr: 0xC3B4, symBinAddr: 0x10000EC1C, symSize: 0x23C }
  - { offsetInCU: 0x18A07, offset: 0x18A07, size: 0x8, addend: 0x0, symName: __ZNK3tbb6detail2d113blocked_rangeIiE5beginEv, symObjAddr: 0xC5F0, symBinAddr: 0x10000EE58, symSize: 0x58 }
  - { offsetInCU: 0x18A2D, offset: 0x18A2D, size: 0x8, addend: 0x0, symName: __ZNK3tbb6detail2d113blocked_rangeIiE3endEv, symObjAddr: 0xC648, symBinAddr: 0x10000EEB0, symSize: 0x54 }
  - { offsetInCU: 0x18A53, offset: 0x18A53, size: 0x8, addend: 0x0, symName: __ZN3tbb6detail2d112range_vectorINS1_13blocked_rangeIiEELh8EEC2ERKS4_, symObjAddr: 0xC69C, symBinAddr: 0x10000EF04, symSize: 0xC0 }
  - { offsetInCU: 0x18A8B, offset: 0x18A8B, size: 0x8, addend: 0x0, symName: __ZNK3tbb6detail2d013aligned_spaceINS0_2d113blocked_rangeIiEELm8EE5beginEv, symObjAddr: 0xC75C, symBinAddr: 0x10000EFC4, symSize: 0x48 }
  - { offsetInCU: 0x18AB1, offset: 0x18AB1, size: 0x8, addend: 0x0, symName: '__ZN3tbb6detail2d19tree_node14is_peer_stolenINS1_9start_forINS1_13blocked_rangeIiEEZ23dot_static_parallel_forRK6MatrixS9_E3$_0KNS1_16auto_partitionerEEEEEbRT_', symObjAddr: 0xC7C0, symBinAddr: 0x10000F028, symSize: 0x68 }
  - { offsetInCU: 0x18ADD, offset: 0x18ADD, size: 0x8, addend: 0x0, symName: __ZNKSt3__113__atomic_baseIbLb0EE4loadB8ue170006ENS_12memory_orderE, symObjAddr: 0xC828, symBinAddr: 0x10000F090, symSize: 0x5C }
  - { offsetInCU: 0x18B11, offset: 0x18B11, size: 0x8, addend: 0x0, symName: '__ZN3tbb6detail2d19start_forINS1_13blocked_rangeIiEEZ23dot_static_parallel_forRK6MatrixS7_E3$_0KNS1_16auto_partitionerEE15offer_work_implIJRSB_RKS4_RhEEEvRNS1_14execution_dataEDpOT_', symObjAddr: 0xC964, symBinAddr: 0x10000F1CC, symSize: 0x154 }
  - { offsetInCU: 0x18BA0, offset: 0x18BA0, size: 0x8, addend: 0x0, symName: '__ZN3tbb6detail2d122small_object_allocator10new_objectINS1_9start_forINS1_13blocked_rangeIiEEZ23dot_static_parallel_forRK6MatrixS9_E3$_0KNS1_16auto_partitionerEEEJRSD_RKS6_RhRS2_EEEPT_RNS1_14execution_dataEDpOT0_', symObjAddr: 0xCAB8, symBinAddr: 0x10000F320, symSize: 0xFC }
  - { offsetInCU: 0x18C4B, offset: 0x18C4B, size: 0x8, addend: 0x0, symName: '__ZN3tbb6detail2d19start_forINS1_13blocked_rangeIiEEZ23dot_static_parallel_forRK6MatrixS7_E3$_0KNS1_16auto_partitionerEEC1ERSB_RKS4_hRNS1_22small_object_allocatorE', symObjAddr: 0xCBB4, symBinAddr: 0x10000F41C, symSize: 0x9C }
  - { offsetInCU: 0x18CAD, offset: 0x18CAD, size: 0x8, addend: 0x0, symName: '__ZN3tbb6detail2d19start_forINS1_13blocked_rangeIiEEZ23dot_static_parallel_forRK6MatrixS7_E3$_0KNS1_16auto_partitionerEEC2ERSB_RKS4_hRNS1_22small_object_allocatorE', symObjAddr: 0xCC50, symBinAddr: 0x10000F4B8, symSize: 0x150 }
  - { offsetInCU: 0x18D0F, offset: 0x18D0F, size: 0x8, addend: 0x0, symName: __ZN3tbb6detail2d122dynamic_grainsize_modeINS1_13adaptive_modeINS1_19auto_partition_typeEEEE11align_depthEh, symObjAddr: 0xCDA0, symBinAddr: 0x10000F608, symSize: 0x70 }
  - { offsetInCU: 0x18D44, offset: 0x18D44, size: 0x8, addend: 0x0, symName: __ZN3tbb6detail2d112range_vectorINS1_13blocked_rangeIiEELh8EE10back_depthEv, symObjAddr: 0xCE10, symBinAddr: 0x10000F678, symSize: 0x74 }
  - { offsetInCU: 0x18D6A, offset: 0x18D6A, size: 0x8, addend: 0x0, symName: __ZN3tbb6detail2d118task_group_context14actual_contextEv, symObjAddr: 0xCE84, symBinAddr: 0x10000F6EC, symSize: 0x90 }
  - { offsetInCU: 0x18D90, offset: 0x18D90, size: 0x8, addend: 0x0, symName: __ZNK3tbb6detail2d118task_group_context8is_proxyEv, symObjAddr: 0xCF14, symBinAddr: 0x10000F77C, symSize: 0x60 }
  - { offsetInCU: 0x18DB6, offset: 0x18DB6, size: 0x8, addend: 0x0, symName: __ZNKSt3__113__atomic_baseIN3tbb6detail2d118task_group_context5stateELb0EE4loadB8ue170006ENS_12memory_orderE, symObjAddr: 0xCF74, symBinAddr: 0x10000F7DC, symSize: 0x5C }
  - { offsetInCU: 0x18DEA, offset: 0x18DEA, size: 0x8, addend: 0x0, symName: __ZN3tbb6detail2d112range_vectorINS1_13blocked_rangeIiEELh8EED2Ev, symObjAddr: 0xD0AC, symBinAddr: 0x10000F914, symSize: 0x78 }
  - { offsetInCU: 0x18E14, offset: 0x18E14, size: 0x8, addend: 0x0, symName: '__ZN3tbb6detail2d122small_object_allocator10deallocateINS1_9start_forINS1_13blocked_rangeIiEEZ23dot_static_parallel_forRK6MatrixS9_E3$_0KNS1_16auto_partitionerEEEEEvPT_RKNS1_14execution_dataE', symObjAddr: 0xD24C, symBinAddr: 0x10000FAB4, symSize: 0x98 }
  - { offsetInCU: 0x18E5F, offset: 0x18E5F, size: 0x8, addend: 0x0, symName: __ZNSt3__113__atomic_baseIiLb1EEmmB8ue170006Ev, symObjAddr: 0xD2E4, symBinAddr: 0x10000FB4C, symSize: 0x54 }
  - { offsetInCU: 0x18E85, offset: 0x18E85, size: 0x8, addend: 0x0, symName: __ZN3tbb6detail2d19tree_node4joinEPNS1_18task_group_contextE, symObjAddr: 0xD338, symBinAddr: 0x10000FBA0, symSize: 0x14 }
  - { offsetInCU: 0x18EB5, offset: 0x18EB5, size: 0x8, addend: 0x0, symName: __ZN3tbb6detail2d122small_object_allocator13delete_objectINS1_9tree_nodeEEEvPT_RKNS1_14execution_dataE, symObjAddr: 0xD34C, symBinAddr: 0x10000FBB4, symSize: 0x88 }
  - { offsetInCU: 0x18F0E, offset: 0x18F0E, size: 0x8, addend: 0x0, symName: __ZN3tbb6detail2d112wait_context7releaseEj, symObjAddr: 0xD3D4, symBinAddr: 0x10000FC3C, symSize: 0x70 }
  - { offsetInCU: 0x18F42, offset: 0x18F42, size: 0x8, addend: 0x0, symName: __ZNSt3__113__atomic_baseIiLb1EE9fetch_subB8ue170006EiNS_12memory_orderE, symObjAddr: 0xD444, symBinAddr: 0x10000FCAC, symSize: 0x68 }
  - { offsetInCU: 0x18F84, offset: 0x18F84, size: 0x8, addend: 0x0, symName: __ZN3tbb6detail2d122small_object_allocator10deallocateINS1_9tree_nodeEEEvPT_RKNS1_14execution_dataE, symObjAddr: 0xD5D8, symBinAddr: 0x10000FE40, symSize: 0x98 }
  - { offsetInCU: 0x18FCF, offset: 0x18FCF, size: 0x8, addend: 0x0, symName: __ZN3tbb6detail2d112wait_context13add_referenceEx, symObjAddr: 0xD670, symBinAddr: 0x10000FED8, symSize: 0xB0 }
  - { offsetInCU: 0x1902D, offset: 0x1902D, size: 0x8, addend: 0x0, symName: __ZNSt3__113__atomic_baseIyLb1EE9fetch_addB8ue170006EyNS_12memory_orderE, symObjAddr: 0xD720, symBinAddr: 0x10000FF88, symSize: 0x68 }
  - { offsetInCU: 0x1906F, offset: 0x1906F, size: 0x8, addend: 0x0, symName: __ZN3tbb6detail2d19wait_nodeC2Ev, symObjAddr: 0xD8B4, symBinAddr: 0x10001011C, symSize: 0x78 }
  - { offsetInCU: 0x19099, offset: 0x19099, size: 0x8, addend: 0x0, symName: __ZN3tbb6detail2d112wait_contextC1Ej, symObjAddr: 0xD92C, symBinAddr: 0x100010194, symSize: 0x6C }
  - { offsetInCU: 0x190D1, offset: 0x190D1, size: 0x8, addend: 0x0, symName: __ZN3tbb6detail2d112wait_contextC2Ej, symObjAddr: 0xD998, symBinAddr: 0x100010200, symSize: 0x78 }
  - { offsetInCU: 0x19109, offset: 0x19109, size: 0x8, addend: 0x0, symName: __ZNSt3__16atomicIyEC1B8ue170006Ey, symObjAddr: 0xDA10, symBinAddr: 0x100010278, symSize: 0x58 }
  - { offsetInCU: 0x19141, offset: 0x19141, size: 0x8, addend: 0x0, symName: __ZNSt3__16atomicIyEC2B8ue170006Ey, symObjAddr: 0xDA78, symBinAddr: 0x1000102E0, symSize: 0x58 }
  - { offsetInCU: 0x19179, offset: 0x19179, size: 0x8, addend: 0x0, symName: __ZNSt3__113__atomic_baseIyLb1EEC2B8ue170006Ey, symObjAddr: 0xDAD0, symBinAddr: 0x100010338, symSize: 0x58 }
  - { offsetInCU: 0x191B1, offset: 0x191B1, size: 0x8, addend: 0x0, symName: __ZNSt3__113__atomic_baseIyLb0EEC2B8ue170006Ey, symObjAddr: 0xDB28, symBinAddr: 0x100010390, symSize: 0x58 }
  - { offsetInCU: 0x191E9, offset: 0x191E9, size: 0x8, addend: 0x0, symName: __ZNSt3__117__cxx_atomic_implIyNS_22__cxx_atomic_base_implIyEEEC1B8ue170006Ey, symObjAddr: 0xDB80, symBinAddr: 0x1000103E8, symSize: 0x58 }
  - { offsetInCU: 0x19222, offset: 0x19222, size: 0x8, addend: 0x0, symName: __ZNSt3__117__cxx_atomic_implIyNS_22__cxx_atomic_base_implIyEEEC2B8ue170006Ey, symObjAddr: 0xDBD8, symBinAddr: 0x100010440, symSize: 0x58 }
  - { offsetInCU: 0x1925B, offset: 0x1925B, size: 0x8, addend: 0x0, symName: __ZNSt3__122__cxx_atomic_base_implIyEC2Ey, symObjAddr: 0xDC30, symBinAddr: 0x100010498, symSize: 0x68 }
  - { offsetInCU: 0x19294, offset: 0x19294, size: 0x8, addend: 0x0, symName: __ZN3tbb6detail2d19wait_nodeD2Ev, symObjAddr: 0xDC98, symBinAddr: 0x100010500, symSize: 0x4C }
  - { offsetInCU: 0x192C0, offset: 0x192C0, size: 0x8, addend: 0x0, symName: __ZN3tbb6detail2d112wait_contextD1Ev, symObjAddr: 0xDCE4, symBinAddr: 0x10001054C, symSize: 0x48 }
  - { offsetInCU: 0x192EA, offset: 0x192EA, size: 0x8, addend: 0x0, symName: __ZN3tbb6detail2d112wait_contextD2Ev, symObjAddr: 0xDD2C, symBinAddr: 0x100010594, symSize: 0x14 }
  - { offsetInCU: 0x19314, offset: 0x19314, size: 0x8, addend: 0x0, symName: __ZN3tbb6detail2d118task_group_contextD2Ev, symObjAddr: 0xDD40, symBinAddr: 0x1000105A8, symSize: 0x70 }
  - { offsetInCU: 0x1933E, offset: 0x1933E, size: 0x8, addend: 0x0, symName: __ZN3tbb6detail2d116auto_partitionerC2Ev, symObjAddr: 0xDDB0, symBinAddr: 0x100010618, symSize: 0x14 }
  - { offsetInCU: 0x19385, offset: 0x19385, size: 0x8, addend: 0x0, symName: '__ZN3tbb6detail2d19start_forINS1_13blocked_rangeIiEEZ24dot_dynamic_parallel_forRK6MatrixS7_E3$_1KNS1_18static_partitionerEE3runERKS4_RKS8_RSA_', symObjAddr: 0xDDC4, symBinAddr: 0x10001062C, symSize: 0x108 }
  - { offsetInCU: 0x193D6, offset: 0x193D6, size: 0x8, addend: 0x0, symName: '__ZN3tbb6detail2d19start_forINS1_13blocked_rangeIiEEZ24dot_dynamic_parallel_forRK6MatrixS7_E3$_1KNS1_18static_partitionerEE3runERKS4_RKS8_RSA_RNS1_18task_group_contextE', symObjAddr: 0xDECC, symBinAddr: 0x100010734, symSize: 0x14C }
  - { offsetInCU: 0x1945B, offset: 0x1945B, size: 0x8, addend: 0x0, symName: '__ZN3tbb6detail2d122small_object_allocator10new_objectINS1_9start_forINS1_13blocked_rangeIiEEZ24dot_dynamic_parallel_forRK6MatrixS9_E3$_1KNS1_18static_partitionerEEEJRKS6_RKSA_RSC_RS2_EEEPT_DpOT0_', symObjAddr: 0xE018, symBinAddr: 0x100010880, symSize: 0xC8 }
  - { offsetInCU: 0x194F8, offset: 0x194F8, size: 0x8, addend: 0x0, symName: '__ZN3tbb6detail2d19start_forINS1_13blocked_rangeIiEEZ24dot_dynamic_parallel_forRK6MatrixS7_E3$_1KNS1_18static_partitionerEEC1ERKS4_RKS8_RSA_RNS1_22small_object_allocatorE', symObjAddr: 0xE0E0, symBinAddr: 0x100010948, symSize: 0x9C }
  - { offsetInCU: 0x1955A, offset: 0x1955A, size: 0x8, addend: 0x0, symName: '__ZN3tbb6detail2d19start_forINS1_13blocked_rangeIiEEZ24dot_dynamic_parallel_forRK6MatrixS7_E3$_1KNS1_18static_partitionerEEC2ERKS4_RKS8_RSA_RNS1_22small_object_allocatorE', symObjAddr: 0xE17C, symBinAddr: 0x1000109E4, symSize: 0x134 }
  - { offsetInCU: 0x195BC, offset: 0x195BC, size: 0x8, addend: 0x0, symName: __ZN3tbb6detail2d121static_partition_typeC1ERKNS1_18static_partitionerE, symObjAddr: 0xE2B0, symBinAddr: 0x100010B18, symSize: 0x6C }
  - { offsetInCU: 0x195F2, offset: 0x195F2, size: 0x8, addend: 0x0, symName: '__ZN3tbb6detail2d19start_forINS1_13blocked_rangeIiEEZ24dot_dynamic_parallel_forRK6MatrixS7_E3$_1KNS1_18static_partitionerEED1Ev', symObjAddr: 0xE31C, symBinAddr: 0x100010B84, symSize: 0x48 }
  - { offsetInCU: 0x1961E, offset: 0x1961E, size: 0x8, addend: 0x0, symName: '__ZN3tbb6detail2d19start_forINS1_13blocked_rangeIiEEZ24dot_dynamic_parallel_forRK6MatrixS7_E3$_1KNS1_18static_partitionerEED0Ev', symObjAddr: 0xE364, symBinAddr: 0x100010BCC, symSize: 0x50 }
  - { offsetInCU: 0x1964A, offset: 0x1964A, size: 0x8, addend: 0x0, symName: '__ZN3tbb6detail2d19start_forINS1_13blocked_rangeIiEEZ24dot_dynamic_parallel_forRK6MatrixS7_E3$_1KNS1_18static_partitionerEE7executeERNS1_14execution_dataE', symObjAddr: 0xE3B4, symBinAddr: 0x100010C1C, symSize: 0xF0 }
  - { offsetInCU: 0x1967F, offset: 0x1967F, size: 0x8, addend: 0x0, symName: '__ZN3tbb6detail2d19start_forINS1_13blocked_rangeIiEEZ24dot_dynamic_parallel_forRK6MatrixS7_E3$_1KNS1_18static_partitionerEE6cancelERNS1_14execution_dataE', symObjAddr: 0xE4A4, symBinAddr: 0x100010D0C, symSize: 0x68 }
  - { offsetInCU: 0x196B4, offset: 0x196B4, size: 0x8, addend: 0x0, symName: __ZN3tbb6detail2d121static_partition_typeC2ERKNS1_18static_partitionerE, symObjAddr: 0xE50C, symBinAddr: 0x100010D74, symSize: 0x68 }
  - { offsetInCU: 0x196EA, offset: 0x196EA, size: 0x8, addend: 0x0, symName: __ZN3tbb6detail2d120linear_affinity_modeINS1_21static_partition_typeEEC2Ev, symObjAddr: 0xE574, symBinAddr: 0x100010DDC, symSize: 0xBC }
  - { offsetInCU: 0x19714, offset: 0x19714, size: 0x8, addend: 0x0, symName: __ZN3tbb6detail2d117proportional_modeINS1_21static_partition_typeEEC2Ev, symObjAddr: 0xE630, symBinAddr: 0x100010E98, symSize: 0x5C }
  - { offsetInCU: 0x1973E, offset: 0x1973E, size: 0x8, addend: 0x0, symName: __ZN3tbb6detail2d119partition_type_baseINS1_21static_partition_typeEE4selfEv, symObjAddr: 0xE6FC, symBinAddr: 0x100010F64, symSize: 0x14 }
  - { offsetInCU: 0x19764, offset: 0x19764, size: 0x8, addend: 0x0, symName: __ZN3tbb6detail2d113adaptive_modeINS1_21static_partition_typeEEC2Ev, symObjAddr: 0xE710, symBinAddr: 0x100010F78, symSize: 0x88 }
  - { offsetInCU: 0x1978E, offset: 0x1978E, size: 0x8, addend: 0x0, symName: '__ZN3tbb6detail2d19start_forINS1_13blocked_rangeIiEEZ24dot_dynamic_parallel_forRK6MatrixS7_E3$_1KNS1_18static_partitionerEED2Ev', symObjAddr: 0xE820, symBinAddr: 0x100011088, symSize: 0x48 }
  - { offsetInCU: 0x197BA, offset: 0x197BA, size: 0x8, addend: 0x0, symName: __ZN3tbb6detail2d119partition_type_baseINS1_21static_partition_typeEE13note_affinityEt, symObjAddr: 0xE868, symBinAddr: 0x1000110D0, symSize: 0x14 }
  - { offsetInCU: 0x197EC, offset: 0x197EC, size: 0x8, addend: 0x0, symName: '__ZN3tbb6detail2d119partition_type_baseINS1_21static_partition_typeEE18check_being_stolenINS1_9start_forINS1_13blocked_rangeIiEEZ24dot_dynamic_parallel_forRK6MatrixSB_E3$_1KNS1_18static_partitionerEEEEEbRT_RKNS1_14execution_dataE', symObjAddr: 0xE87C, symBinAddr: 0x1000110E4, symSize: 0x20 }
  - { offsetInCU: 0x19833, offset: 0x19833, size: 0x8, addend: 0x0, symName: '__ZN3tbb6detail2d119partition_type_baseINS1_21static_partition_typeEE7executeINS1_9start_forINS1_13blocked_rangeIiEEZ24dot_dynamic_parallel_forRK6MatrixSB_E3$_1KNS1_18static_partitionerEEES8_EEvRT_RT0_RNS1_14execution_dataE', symObjAddr: 0xE89C, symBinAddr: 0x100011104, symSize: 0x15C }
  - { offsetInCU: 0x198AE, offset: 0x198AE, size: 0x8, addend: 0x0, symName: '__ZN3tbb6detail2d19start_forINS1_13blocked_rangeIiEEZ24dot_dynamic_parallel_forRK6MatrixS7_E3$_1KNS1_18static_partitionerEE8finalizeERKNS1_14execution_dataE', symObjAddr: 0xE9F8, symBinAddr: 0x100011260, symSize: 0xBC }
  - { offsetInCU: 0x198FF, offset: 0x198FF, size: 0x8, addend: 0x0, symName: __ZN3tbb6detail2d117proportional_modeINS1_21static_partition_typeEE12is_divisibleEv, symObjAddr: 0xEAB4, symBinAddr: 0x10001131C, symSize: 0x64 }
  - { offsetInCU: 0x19925, offset: 0x19925, size: 0x8, addend: 0x0, symName: __ZN3tbb6detail2d117proportional_modeINS1_21static_partition_typeEE9get_splitINS1_13blocked_rangeIiEEEENS0_2d018proportional_splitEv, symObjAddr: 0xEB18, symBinAddr: 0x100011380, symSize: 0xC0 }
  - { offsetInCU: 0x19981, offset: 0x19981, size: 0x8, addend: 0x0, symName: '__ZN3tbb6detail2d19start_forINS1_13blocked_rangeIiEEZ24dot_dynamic_parallel_forRK6MatrixS7_E3$_1KNS1_18static_partitionerEE10offer_workERNS0_2d018proportional_splitERNS1_14execution_dataE', symObjAddr: 0xEBD8, symBinAddr: 0x100011440, symSize: 0x78 }
  - { offsetInCU: 0x199C3, offset: 0x199C3, size: 0x8, addend: 0x0, symName: '__ZN3tbb6detail2d119partition_type_baseINS1_21static_partition_typeEE12work_balanceINS1_9start_forINS1_13blocked_rangeIiEEZ24dot_dynamic_parallel_forRK6MatrixSB_E3$_1KNS1_18static_partitionerEEES8_EEvRT_RT0_RKNS1_14execution_dataE', symObjAddr: 0xEC50, symBinAddr: 0x1000114B8, symSize: 0x7C }
  - { offsetInCU: 0x19A25, offset: 0x19A25, size: 0x8, addend: 0x0, symName: __ZN3tbb6detail2d018proportional_splitC1Emm, symObjAddr: 0xECCC, symBinAddr: 0x100011534, symSize: 0x68 }
  - { offsetInCU: 0x19A6B, offset: 0x19A6B, size: 0x8, addend: 0x0, symName: __ZN3tbb6detail2d018proportional_splitC2Emm, symObjAddr: 0xED34, symBinAddr: 0x10001159C, symSize: 0x90 }
  - { offsetInCU: 0x19AB1, offset: 0x19AB1, size: 0x8, addend: 0x0, symName: '__ZN3tbb6detail2d19start_forINS1_13blocked_rangeIiEEZ24dot_dynamic_parallel_forRK6MatrixS7_E3$_1KNS1_18static_partitionerEE15offer_work_implIJRSB_RNS0_2d018proportional_splitEEEEvRNS1_14execution_dataEDpOT_', symObjAddr: 0xEDC4, symBinAddr: 0x10001162C, symSize: 0x144 }
  - { offsetInCU: 0x19B2D, offset: 0x19B2D, size: 0x8, addend: 0x0, symName: '__ZN3tbb6detail2d122small_object_allocator10new_objectINS1_9start_forINS1_13blocked_rangeIiEEZ24dot_dynamic_parallel_forRK6MatrixS9_E3$_1KNS1_18static_partitionerEEEJRSD_RNS0_2d018proportional_splitERS2_EEEPT_RNS1_14execution_dataEDpOT0_', symObjAddr: 0xEF08, symBinAddr: 0x100011770, symSize: 0xC8 }
  - { offsetInCU: 0x19BC5, offset: 0x19BC5, size: 0x8, addend: 0x0, symName: '__ZN3tbb6detail2d19start_forINS1_13blocked_rangeIiEEZ24dot_dynamic_parallel_forRK6MatrixS7_E3$_1KNS1_18static_partitionerEE10spawn_selfERNS1_14execution_dataE', symObjAddr: 0xEFD0, symBinAddr: 0x100011838, symSize: 0x7C }
  - { offsetInCU: 0x19BF9, offset: 0x19BF9, size: 0x8, addend: 0x0, symName: '__ZN3tbb6detail2d19start_forINS1_13blocked_rangeIiEEZ24dot_dynamic_parallel_forRK6MatrixS7_E3$_1KNS1_18static_partitionerEEC1ERSB_RNS0_2d018proportional_splitERNS1_22small_object_allocatorE', symObjAddr: 0xF04C, symBinAddr: 0x1000118B4, symSize: 0x8C }
  - { offsetInCU: 0x19C4D, offset: 0x19C4D, size: 0x8, addend: 0x0, symName: '__ZN3tbb6detail2d19start_forINS1_13blocked_rangeIiEEZ24dot_dynamic_parallel_forRK6MatrixS7_E3$_1KNS1_18static_partitionerEEC2ERSB_RNS0_2d018proportional_splitERNS1_22small_object_allocatorE', symObjAddr: 0xF0D8, symBinAddr: 0x100011940, symSize: 0x150 }
  - { offsetInCU: 0x19CA1, offset: 0x19CA1, size: 0x8, addend: 0x0, symName: __ZN3tbb6detail2d113blocked_rangeIiEC1ERS3_RNS0_2d018proportional_splitE, symObjAddr: 0xF270, symBinAddr: 0x100011AD8, symSize: 0x7C }
  - { offsetInCU: 0x19CE7, offset: 0x19CE7, size: 0x8, addend: 0x0, symName: __ZN3tbb6detail2d121static_partition_typeC1ERS2_RKNS0_2d018proportional_splitE, symObjAddr: 0xF2EC, symBinAddr: 0x100011B54, symSize: 0x7C }
  - { offsetInCU: 0x19D2F, offset: 0x19D2F, size: 0x8, addend: 0x0, symName: __ZN3tbb6detail2d027range_split_object_providerINS0_2d113blocked_rangeIiEEvE3getINS1_18proportional_splitEEERT_SA_, symObjAddr: 0xF368, symBinAddr: 0x100011BD0, symSize: 0x14 }
  - { offsetInCU: 0x19D5B, offset: 0x19D5B, size: 0x8, addend: 0x0, symName: __ZN3tbb6detail2d113blocked_rangeIiEC2ERS3_RNS0_2d018proportional_splitE, symObjAddr: 0xF37C, symBinAddr: 0x100011BE4, symSize: 0x100 }
  - { offsetInCU: 0x19DA1, offset: 0x19DA1, size: 0x8, addend: 0x0, symName: __ZN3tbb6detail2d113blocked_rangeIiE8do_splitERS3_RNS0_2d018proportional_splitE, symObjAddr: 0xF47C, symBinAddr: 0x100011CE4, symSize: 0xE8 }
  - { offsetInCU: 0x19DE0, offset: 0x19DE0, size: 0x8, addend: 0x0, symName: __ZNK3tbb6detail2d018proportional_split5rightEv, symObjAddr: 0xF564, symBinAddr: 0x100011DCC, symSize: 0x58 }
  - { offsetInCU: 0x19E06, offset: 0x19E06, size: 0x8, addend: 0x0, symName: __ZNK3tbb6detail2d018proportional_split4leftEv, symObjAddr: 0xF5BC, symBinAddr: 0x100011E24, symSize: 0x54 }
  - { offsetInCU: 0x19E2C, offset: 0x19E2C, size: 0x8, addend: 0x0, symName: __ZN3tbb6detail2d121static_partition_typeC2ERS2_RKNS0_2d018proportional_splitE, symObjAddr: 0xF610, symBinAddr: 0x100011E78, symSize: 0x7C }
  - { offsetInCU: 0x19E74, offset: 0x19E74, size: 0x8, addend: 0x0, symName: __ZN3tbb6detail2d120linear_affinity_modeINS1_21static_partition_typeEEC2ERS4_RKNS0_2d018proportional_splitE, symObjAddr: 0xF68C, symBinAddr: 0x100011EF4, symSize: 0x13C }
  - { offsetInCU: 0x19EBC, offset: 0x19EBC, size: 0x8, addend: 0x0, symName: __ZN3tbb6detail2d117proportional_modeINS1_21static_partition_typeEEC2ERS4_RKNS0_2d018proportional_splitE, symObjAddr: 0xF7C8, symBinAddr: 0x100012030, symSize: 0x9C }
  - { offsetInCU: 0x19F04, offset: 0x19F04, size: 0x8, addend: 0x0, symName: __ZN3tbb6detail2d113adaptive_modeINS1_21static_partition_typeEEC2ERS4_RKNS0_2d018proportional_splitE, symObjAddr: 0xF864, symBinAddr: 0x1000120CC, symSize: 0x68 }
  - { offsetInCU: 0x19F46, offset: 0x19F46, size: 0x8, addend: 0x0, symName: __ZN3tbb6detail2d117proportional_modeINS1_21static_partition_typeEE8do_splitERS4_RKNS0_2d018proportional_splitE, symObjAddr: 0xF8CC, symBinAddr: 0x100012134, symSize: 0xA8 }
  - { offsetInCU: 0x19F99, offset: 0x19F99, size: 0x8, addend: 0x0, symName: __ZN3tbb6detail2d120linear_affinity_modeINS1_21static_partition_typeEE10spawn_taskERNS1_4taskERNS1_18task_group_contextE, symObjAddr: 0xF974, symBinAddr: 0x1000121DC, symSize: 0xDC }
  - { offsetInCU: 0x19FDD, offset: 0x19FDD, size: 0x8, addend: 0x0, symName: '__ZN3tbb6detail2d19start_forINS1_13blocked_rangeIiEEZ24dot_dynamic_parallel_forRK6MatrixS7_E3$_1KNS1_18static_partitionerEE8run_bodyERS4_', symObjAddr: 0xFAD0, symBinAddr: 0x100012338, symSize: 0x68 }
  - { offsetInCU: 0x1A017, offset: 0x1A017, size: 0x8, addend: 0x0, symName: '__ZZ24dot_dynamic_parallel_forRK6MatrixS1_ENK3$_1clEN3tbb6detail2d113blocked_rangeIiEE', symObjAddr: 0xFC80, symBinAddr: 0x1000124E8, symSize: 0x23C }
  - { offsetInCU: 0x1A0A3, offset: 0x1A0A3, size: 0x8, addend: 0x0, symName: '__ZN3tbb6detail2d122small_object_allocator10deallocateINS1_9start_forINS1_13blocked_rangeIiEEZ24dot_dynamic_parallel_forRK6MatrixS9_E3$_1KNS1_18static_partitionerEEEEEvPT_RKNS1_14execution_dataE', symObjAddr: 0xFEBC, symBinAddr: 0x100012724, symSize: 0x98 }
  - { offsetInCU: 0x1A0EE, offset: 0x1A0EE, size: 0x8, addend: 0x0, symName: __ZNSt3__123mersenne_twister_engineIjLm32ELm624ELm397ELm31ELj2567483615ELm11ELj4294967295ELm7ELj2636928640ELm15ELj4022730752ELm18ELj1812433253EEC2B8ue170006Ej, symObjAddr: 0xFF54, symBinAddr: 0x1000127BC, symSize: 0x6C }
  - { offsetInCU: 0x1A126, offset: 0x1A126, size: 0x8, addend: 0x0, symName: __ZNSt3__123mersenne_twister_engineIjLm32ELm624ELm397ELm31ELj2567483615ELm11ELj4294967295ELm7ELj2636928640ELm15ELj4022730752ELm18ELj1812433253EE4seedEj, symObjAddr: 0xFFC0, symBinAddr: 0x100012828, symSize: 0x140 }
  - { offsetInCU: 0x1A179, offset: 0x1A179, size: 0x8, addend: 0x0, symName: __ZNSt3__123mersenne_twister_engineIjLm32ELm624ELm397ELm31ELj2567483615ELm11ELj4294967295ELm7ELj2636928640ELm15ELj4022730752ELm18ELj1812433253EE8__rshiftB8ue170006ILm30EEENS_9enable_ifIXltT_L_ZNS1_3_DtEEEjE4typeEj, symObjAddr: 0x10100, symBinAddr: 0x100012968, symSize: 0x18 }
  - { offsetInCU: 0x1A1A6, offset: 0x1A1A6, size: 0x8, addend: 0x0, symName: __ZNSt3__125uniform_real_distributionIdEC2B8ue170006Edd, symObjAddr: 0x10118, symBinAddr: 0x100012980, symSize: 0x7C }
  - { offsetInCU: 0x1A1EC, offset: 0x1A1EC, size: 0x8, addend: 0x0, symName: __ZNSt3__125uniform_real_distributionIdE10param_typeC1B8ue170006Edd, symObjAddr: 0x10194, symBinAddr: 0x1000129FC, symSize: 0x68 }
  - { offsetInCU: 0x1A232, offset: 0x1A232, size: 0x8, addend: 0x0, symName: __ZNSt3__125uniform_real_distributionIdE10param_typeC2B8ue170006Edd, symObjAddr: 0x101FC, symBinAddr: 0x100012A64, symSize: 0x90 }
  - { offsetInCU: 0x1A278, offset: 0x1A278, size: 0x8, addend: 0x0, symName: __ZNSt3__125uniform_real_distributionIdEclINS_23mersenne_twister_engineIjLm32ELm624ELm397ELm31ELj2567483615ELm11ELj4294967295ELm7ELj2636928640ELm15ELj4022730752ELm18ELj1812433253EEEEEdRT_RKNS1_10param_typeE, symObjAddr: 0x1028C, symBinAddr: 0x100012AF4, symSize: 0xB4 }
  - { offsetInCU: 0x1A2C4, offset: 0x1A2C4, size: 0x8, addend: 0x0, symName: __ZNKSt3__125uniform_real_distributionIdE10param_type1bB8ue170006Ev, symObjAddr: 0x10340, symBinAddr: 0x100012BA8, symSize: 0x58 }
  - { offsetInCU: 0x1A2EA, offset: 0x1A2EA, size: 0x8, addend: 0x0, symName: __ZNKSt3__125uniform_real_distributionIdE10param_type1aB8ue170006Ev, symObjAddr: 0x10398, symBinAddr: 0x100012C00, symSize: 0x54 }
  - { offsetInCU: 0x1A310, offset: 0x1A310, size: 0x8, addend: 0x0, symName: __ZNSt3__123mersenne_twister_engineIjLm32ELm624ELm397ELm31ELj2567483615ELm11ELj4294967295ELm7ELj2636928640ELm15ELj4022730752ELm18ELj1812433253EE3maxB8ue170006Ev, symObjAddr: 0x10534, symBinAddr: 0x100012D9C, symSize: 0x8 }
  - { offsetInCU: 0x1A324, offset: 0x1A324, size: 0x8, addend: 0x0, symName: __ZNSt3__123mersenne_twister_engineIjLm32ELm624ELm397ELm31ELj2567483615ELm11ELj4294967295ELm7ELj2636928640ELm15ELj4022730752ELm18ELj1812433253EE3minB8ue170006Ev, symObjAddr: 0x1053C, symBinAddr: 0x100012DA4, symSize: 0x8 }
  - { offsetInCU: 0x1A338, offset: 0x1A338, size: 0x8, addend: 0x0, symName: __ZNSt3__123mersenne_twister_engineIjLm32ELm624ELm397ELm31ELj2567483615ELm11ELj4294967295ELm7ELj2636928640ELm15ELj4022730752ELm18ELj1812433253EEclEv, symObjAddr: 0x10544, symBinAddr: 0x100012DAC, symSize: 0x254 }
  - { offsetInCU: 0x1A3AB, offset: 0x1A3AB, size: 0x8, addend: 0x0, symName: __ZNSt3__123mersenne_twister_engineIjLm32ELm624ELm397ELm31ELj2567483615ELm11ELj4294967295ELm7ELj2636928640ELm15ELj4022730752ELm18ELj1812433253EE8__rshiftB8ue170006ILm1EEENS_9enable_ifIXltT_L_ZNS1_3_DtEEEjE4typeEj, symObjAddr: 0x10798, symBinAddr: 0x100013000, symSize: 0x18 }
  - { offsetInCU: 0x1A3D8, offset: 0x1A3D8, size: 0x8, addend: 0x0, symName: __ZNSt3__123mersenne_twister_engineIjLm32ELm624ELm397ELm31ELj2567483615ELm11ELj4294967295ELm7ELj2636928640ELm15ELj4022730752ELm18ELj1812433253EE8__rshiftB8ue170006ILm11EEENS_9enable_ifIXltT_L_ZNS1_3_DtEEEjE4typeEj, symObjAddr: 0x107B0, symBinAddr: 0x100013018, symSize: 0x18 }
  - { offsetInCU: 0x1A405, offset: 0x1A405, size: 0x8, addend: 0x0, symName: __ZNSt3__123mersenne_twister_engineIjLm32ELm624ELm397ELm31ELj2567483615ELm11ELj4294967295ELm7ELj2636928640ELm15ELj4022730752ELm18ELj1812433253EE8__lshiftB8ue170006ILm7EEENS_9enable_ifIXltT_Lm32EEjE4typeEj, symObjAddr: 0x107C8, symBinAddr: 0x100013030, symSize: 0x1C }
  - { offsetInCU: 0x1A432, offset: 0x1A432, size: 0x8, addend: 0x0, symName: __ZNSt3__123mersenne_twister_engineIjLm32ELm624ELm397ELm31ELj2567483615ELm11ELj4294967295ELm7ELj2636928640ELm15ELj4022730752ELm18ELj1812433253EE8__lshiftB8ue170006ILm15EEENS_9enable_ifIXltT_Lm32EEjE4typeEj, symObjAddr: 0x107E4, symBinAddr: 0x10001304C, symSize: 0x1C }
  - { offsetInCU: 0x1A45F, offset: 0x1A45F, size: 0x8, addend: 0x0, symName: __ZNSt3__123mersenne_twister_engineIjLm32ELm624ELm397ELm31ELj2567483615ELm11ELj4294967295ELm7ELj2636928640ELm15ELj4022730752ELm18ELj1812433253EE8__rshiftB8ue170006ILm18EEENS_9enable_ifIXltT_L_ZNS1_3_DtEEEjE4typeEj, symObjAddr: 0x10800, symBinAddr: 0x100013068, symSize: 0x18 }
...
